
G:/EMBARCATECHTREINAMENTO/teste3/EmbarcatechTeclado/teclado/build/teclado.elf:     file format elf32-littlearm

Sections:
Idx Name          Size      VMA       LMA       File off  Algn
  0 .boot2        00000100  10000000  10000000  00001000  2**0
                  CONTENTS, ALLOC, LOAD, READONLY, CODE
  1 .text         00003808  10000100  10000100  00001100  2**3
                  CONTENTS, ALLOC, LOAD, READONLY, CODE
  2 .rodata       0000033c  10003908  10003908  00004908  2**3
                  CONTENTS, ALLOC, LOAD, READONLY, DATA
  3 .binary_info  00000020  10003c44  10003c44  00004c44  2**2
                  CONTENTS, ALLOC, LOAD, READONLY, DATA
  4 .ram_vector_table 000000c0  20000000  20000000  00006000  2**2
                  ALLOC
  5 .uninitialized_data 00000000  200000c0  200000c0  000051e8  2**0
                  CONTENTS
  6 .data         00000128  200000c0  10003c64  000050c0  2**4
                  CONTENTS, ALLOC, LOAD, READONLY, CODE
  7 .tdata        00000000  200001e8  200001e8  000051e8  2**0
                  CONTENTS, ALLOC, LOAD, DATA, THREAD_LOCAL
  8 .tbss         00000000  200001e8  200001e8  00000000  2**0
                  ALLOC, THREAD_LOCAL
  9 .bss          000003e8  200001e8  10003d8c  000051e8  2**3
                  ALLOC
 10 .heap         00000800  200005d0  200005d0  000051e8  2**2
                  CONTENTS, READONLY
 11 .scratch_x    00000000  20040000  20040000  000059e8  2**0
                  CONTENTS
 12 .scratch_y    00000000  20041000  20041000  000059e8  2**0
                  CONTENTS
 13 .stack_dummy  00000800  20041000  20041000  00005a00  2**5
                  CONTENTS, READONLY
 14 .ARM.attributes 00000028  00000000  00000000  00006200  2**0
                  CONTENTS, READONLY
 15 .comment      00000045  00000000  00000000  00006228  2**0
                  CONTENTS, READONLY
 16 .debug_info   0001adbd  00000000  00000000  0000626d  2**0
                  CONTENTS, READONLY, DEBUGGING, OCTETS
 17 .debug_abbrev 00004c23  00000000  00000000  0002102a  2**0
                  CONTENTS, READONLY, DEBUGGING, OCTETS
 18 .debug_loclists 000100d7  00000000  00000000  00025c4d  2**0
                  CONTENTS, READONLY, DEBUGGING, OCTETS
 19 .debug_aranges 00000d80  00000000  00000000  00035d28  2**3
                  CONTENTS, READONLY, DEBUGGING, OCTETS
 20 .debug_rnglists 00002d31  00000000  00000000  00036aa8  2**0
                  CONTENTS, READONLY, DEBUGGING, OCTETS
 21 .debug_line   00016142  00000000  00000000  000397d9  2**0
                  CONTENTS, READONLY, DEBUGGING, OCTETS
 22 .debug_str    0000439e  00000000  00000000  0004f91b  2**0
                  CONTENTS, READONLY, DEBUGGING, OCTETS
 23 .debug_frame  00001a10  00000000  00000000  00053cbc  2**2
                  CONTENTS, READONLY, DEBUGGING, OCTETS
 24 .debug_line_str 00000358  00000000  00000000  000556cc  2**0
                  CONTENTS, READONLY, DEBUGGING, OCTETS

G:/EMBARCATECHTREINAMENTO/teste3/EmbarcatechTeclado/teclado/build/teclado.elf:     file format elf32-littlearm


Disassembly of section .boot2:

10000000 <__boot2_start__>:
10000000:	4b32b500 	.word	0x4b32b500
10000004:	60582021 	.word	0x60582021
10000008:	21026898 	.word	0x21026898
1000000c:	60984388 	.word	0x60984388
10000010:	611860d8 	.word	0x611860d8
10000014:	4b2e6158 	.word	0x4b2e6158
10000018:	60992100 	.word	0x60992100
1000001c:	61592102 	.word	0x61592102
10000020:	22f02101 	.word	0x22f02101
10000024:	492b5099 	.word	0x492b5099
10000028:	21016019 	.word	0x21016019
1000002c:	20356099 	.word	0x20356099
10000030:	f844f000 	.word	0xf844f000
10000034:	42902202 	.word	0x42902202
10000038:	2106d014 	.word	0x2106d014
1000003c:	f0006619 	.word	0xf0006619
10000040:	6e19f834 	.word	0x6e19f834
10000044:	66192101 	.word	0x66192101
10000048:	66182000 	.word	0x66182000
1000004c:	f000661a 	.word	0xf000661a
10000050:	6e19f82c 	.word	0x6e19f82c
10000054:	6e196e19 	.word	0x6e196e19
10000058:	f0002005 	.word	0xf0002005
1000005c:	2101f82f 	.word	0x2101f82f
10000060:	d1f94208 	.word	0xd1f94208
10000064:	60992100 	.word	0x60992100
10000068:	6019491b 	.word	0x6019491b
1000006c:	60592100 	.word	0x60592100
10000070:	481b491a 	.word	0x481b491a
10000074:	21016001 	.word	0x21016001
10000078:	21eb6099 	.word	0x21eb6099
1000007c:	21a06619 	.word	0x21a06619
10000080:	f0006619 	.word	0xf0006619
10000084:	2100f812 	.word	0x2100f812
10000088:	49166099 	.word	0x49166099
1000008c:	60014814 	.word	0x60014814
10000090:	60992101 	.word	0x60992101
10000094:	2800bc01 	.word	0x2800bc01
10000098:	4700d000 	.word	0x4700d000
1000009c:	49134812 	.word	0x49134812
100000a0:	c8036008 	.word	0xc8036008
100000a4:	8808f380 	.word	0x8808f380
100000a8:	b5034708 	.word	0xb5034708
100000ac:	20046a99 	.word	0x20046a99
100000b0:	d0fb4201 	.word	0xd0fb4201
100000b4:	42012001 	.word	0x42012001
100000b8:	bd03d1f8 	.word	0xbd03d1f8
100000bc:	6618b502 	.word	0x6618b502
100000c0:	f7ff6618 	.word	0xf7ff6618
100000c4:	6e18fff2 	.word	0x6e18fff2
100000c8:	bd026e18 	.word	0xbd026e18
100000cc:	40020000 	.word	0x40020000
100000d0:	18000000 	.word	0x18000000
100000d4:	00070000 	.word	0x00070000
100000d8:	005f0300 	.word	0x005f0300
100000dc:	00002221 	.word	0x00002221
100000e0:	180000f4 	.word	0x180000f4
100000e4:	a0002022 	.word	0xa0002022
100000e8:	10000100 	.word	0x10000100
100000ec:	e000ed08 	.word	0xe000ed08
	...
100000fc:	7a4eb274 	.word	0x7a4eb274

Disassembly of section .text:

10000100 <__VECTOR_TABLE>:
10000100:	20042000 	.word	0x20042000
10000104:	100001f7 	.word	0x100001f7
10000108:	100001c3 	.word	0x100001c3
1000010c:	100001c5 	.word	0x100001c5
10000110:	100001c1 	.word	0x100001c1
10000114:	100001c1 	.word	0x100001c1
10000118:	100001c1 	.word	0x100001c1
1000011c:	100001c1 	.word	0x100001c1
10000120:	100001c1 	.word	0x100001c1
10000124:	100001c1 	.word	0x100001c1
10000128:	100001c1 	.word	0x100001c1
1000012c:	100001c7 	.word	0x100001c7
10000130:	100001c1 	.word	0x100001c1
10000134:	100001c1 	.word	0x100001c1
10000138:	100001c9 	.word	0x100001c9
1000013c:	100001cb 	.word	0x100001cb
10000140:	100001cd 	.word	0x100001cd
10000144:	100001cd 	.word	0x100001cd
10000148:	100001cd 	.word	0x100001cd
1000014c:	100001cd 	.word	0x100001cd
10000150:	100001cd 	.word	0x100001cd
10000154:	100001cd 	.word	0x100001cd
10000158:	100001cd 	.word	0x100001cd
1000015c:	100001cd 	.word	0x100001cd
10000160:	100001cd 	.word	0x100001cd
10000164:	100001cd 	.word	0x100001cd
10000168:	100001cd 	.word	0x100001cd
1000016c:	100001cd 	.word	0x100001cd
10000170:	100001cd 	.word	0x100001cd
10000174:	100001cd 	.word	0x100001cd
10000178:	100001cd 	.word	0x100001cd
1000017c:	100001cd 	.word	0x100001cd
10000180:	100001cd 	.word	0x100001cd
10000184:	100001cd 	.word	0x100001cd
10000188:	100001cd 	.word	0x100001cd
1000018c:	100001cd 	.word	0x100001cd
10000190:	100001cd 	.word	0x100001cd
10000194:	100001cd 	.word	0x100001cd
10000198:	100001cd 	.word	0x100001cd
1000019c:	100001cd 	.word	0x100001cd
100001a0:	100001cd 	.word	0x100001cd
100001a4:	100001cd 	.word	0x100001cd
100001a8:	100001cd 	.word	0x100001cd
100001ac:	100001cd 	.word	0x100001cd
100001b0:	100001cd 	.word	0x100001cd
100001b4:	100001cd 	.word	0x100001cd
100001b8:	100001cd 	.word	0x100001cd
100001bc:	100001cd 	.word	0x100001cd

100001c0 <isr_invalid>:
100001c0:	be00      	bkpt	0x0000

100001c2 <isr_nmi>:
100001c2:	be00      	bkpt	0x0000

100001c4 <isr_hardfault>:
100001c4:	be00      	bkpt	0x0000

100001c6 <isr_svcall>:
100001c6:	be00      	bkpt	0x0000

100001c8 <isr_pendsv>:
100001c8:	be00      	bkpt	0x0000

100001ca <isr_systick>:
100001ca:	be00      	bkpt	0x0000

100001cc <__unhandled_user_irq>:
100001cc:	f3ef 8005 	mrs	r0, IPSR
100001d0:	3810      	subs	r0, #16

100001d2 <unhandled_user_irq_num_in_r0>:
100001d2:	be00      	bkpt	0x0000

100001d4 <binary_info_header>:
100001d4:	7188ebf2 	.word	0x7188ebf2
100001d8:	10003c44 	.word	0x10003c44
100001dc:	10003c64 	.word	0x10003c64
100001e0:	10000238 	.word	0x10000238
100001e4:	e71aa390 	.word	0xe71aa390

100001e8 <_entry_point>:
100001e8:	481e      	ldr	r0, [pc, #120]	@ (10000264 <data_cpy_table+0x2c>)

100001ea <_enter_vtable_in_r0>:
100001ea:	491f      	ldr	r1, [pc, #124]	@ (10000268 <data_cpy_table+0x30>)
100001ec:	6008      	str	r0, [r1, #0]
100001ee:	c806      	ldmia	r0!, {r1, r2}
100001f0:	f381 8808 	msr	MSP, r1
100001f4:	4710      	bx	r2

100001f6 <_reset_handler>:
100001f6:	481d      	ldr	r0, [pc, #116]	@ (1000026c <data_cpy_table+0x34>)
100001f8:	6800      	ldr	r0, [r0, #0]
100001fa:	2800      	cmp	r0, #0
100001fc:	d001      	beq.n	10000202 <hold_non_core0_in_bootrom+0x4>

100001fe <hold_non_core0_in_bootrom>:
100001fe:	4819      	ldr	r0, [pc, #100]	@ (10000264 <data_cpy_table+0x2c>)
10000200:	e7f3      	b.n	100001ea <_enter_vtable_in_r0>
10000202:	a40d      	add	r4, pc, #52	@ (adr r4, 10000238 <data_cpy_table>)
10000204:	cc0e      	ldmia	r4!, {r1, r2, r3}
10000206:	2900      	cmp	r1, #0
10000208:	d002      	beq.n	10000210 <hold_non_core0_in_bootrom+0x12>
1000020a:	f000 f812 	bl	10000232 <data_cpy>
1000020e:	e7f9      	b.n	10000204 <hold_non_core0_in_bootrom+0x6>
10000210:	4917      	ldr	r1, [pc, #92]	@ (10000270 <data_cpy_table+0x38>)
10000212:	4a18      	ldr	r2, [pc, #96]	@ (10000274 <data_cpy_table+0x3c>)
10000214:	2000      	movs	r0, #0
10000216:	e000      	b.n	1000021a <bss_fill_test>

10000218 <bss_fill_loop>:
10000218:	c101      	stmia	r1!, {r0}

1000021a <bss_fill_test>:
1000021a:	4291      	cmp	r1, r2
1000021c:	d1fc      	bne.n	10000218 <bss_fill_loop>

1000021e <platform_entry>:
1000021e:	4916      	ldr	r1, [pc, #88]	@ (10000278 <data_cpy_table+0x40>)
10000220:	4788      	blx	r1
10000222:	4916      	ldr	r1, [pc, #88]	@ (1000027c <data_cpy_table+0x44>)
10000224:	4788      	blx	r1
10000226:	4916      	ldr	r1, [pc, #88]	@ (10000280 <data_cpy_table+0x48>)
10000228:	4788      	blx	r1
1000022a:	be00      	bkpt	0x0000
1000022c:	e7fd      	b.n	1000022a <platform_entry+0xc>

1000022e <data_cpy_loop>:
1000022e:	c901      	ldmia	r1!, {r0}
10000230:	c201      	stmia	r2!, {r0}

10000232 <data_cpy>:
10000232:	429a      	cmp	r2, r3
10000234:	d3fb      	bcc.n	1000022e <data_cpy_loop>
10000236:	4770      	bx	lr

10000238 <data_cpy_table>:
10000238:	10003c64 	.word	0x10003c64
1000023c:	200000c0 	.word	0x200000c0
10000240:	200001e8 	.word	0x200001e8
10000244:	10003d8c 	.word	0x10003d8c
10000248:	20040000 	.word	0x20040000
1000024c:	20040000 	.word	0x20040000
10000250:	10003d8c 	.word	0x10003d8c
10000254:	20041000 	.word	0x20041000
10000258:	20041000 	.word	0x20041000
1000025c:	00000000 	.word	0x00000000
10000260:	4770      	bx	lr
10000262:	0000      	.short	0x0000
10000264:	00000000 	.word	0x00000000
10000268:	e000ed08 	.word	0xe000ed08
1000026c:	d0000000 	.word	0xd0000000
10000270:	200001e8 	.word	0x200001e8
10000274:	200005d0 	.word	0x200005d0
10000278:	10003431 	.word	0x10003431
1000027c:	1000036d 	.word	0x1000036d
10000280:	10003429 	.word	0x10003429

10000284 <_init>:
10000284:	b5f8      	push	{r3, r4, r5, r6, r7, lr}
10000286:	46c0      	nop			@ (mov r8, r8)

10000288 <register_tm_clones>:
10000288:	4806      	ldr	r0, [pc, #24]	@ (100002a4 <register_tm_clones+0x1c>)
1000028a:	4907      	ldr	r1, [pc, #28]	@ (100002a8 <register_tm_clones+0x20>)
1000028c:	1a09      	subs	r1, r1, r0
1000028e:	108b      	asrs	r3, r1, #2
10000290:	0fc9      	lsrs	r1, r1, #31
10000292:	18c9      	adds	r1, r1, r3
10000294:	b510      	push	{r4, lr}
10000296:	1049      	asrs	r1, r1, #1
10000298:	d003      	beq.n	100002a2 <register_tm_clones+0x1a>
1000029a:	4b04      	ldr	r3, [pc, #16]	@ (100002ac <register_tm_clones+0x24>)
1000029c:	2b00      	cmp	r3, #0
1000029e:	d000      	beq.n	100002a2 <register_tm_clones+0x1a>
100002a0:	4798      	blx	r3
100002a2:	bd10      	pop	{r4, pc}
100002a4:	200001e8 	.word	0x200001e8
100002a8:	200001e8 	.word	0x200001e8
100002ac:	00000000 	.word	0x00000000

100002b0 <frame_dummy>:
100002b0:	4b05      	ldr	r3, [pc, #20]	@ (100002c8 <frame_dummy+0x18>)
100002b2:	b510      	push	{r4, lr}
100002b4:	2b00      	cmp	r3, #0
100002b6:	d003      	beq.n	100002c0 <frame_dummy+0x10>
100002b8:	4904      	ldr	r1, [pc, #16]	@ (100002cc <frame_dummy+0x1c>)
100002ba:	4805      	ldr	r0, [pc, #20]	@ (100002d0 <frame_dummy+0x20>)
100002bc:	e000      	b.n	100002c0 <frame_dummy+0x10>
100002be:	bf00      	nop
100002c0:	f7ff ffe2 	bl	10000288 <register_tm_clones>
100002c4:	bd10      	pop	{r4, pc}
100002c6:	46c0      	nop			@ (mov r8, r8)
100002c8:	00000000 	.word	0x00000000
100002cc:	200004a0 	.word	0x200004a0
100002d0:	10003908 	.word	0x10003908

100002d4 <init_pins>:
100002d4:	2310      	movs	r3, #16
100002d6:	b5f0      	push	{r4, r5, r6, r7, lr}
100002d8:	46c6      	mov	lr, r8
100002da:	26d0      	movs	r6, #208	@ 0xd0
100002dc:	4698      	mov	r8, r3
100002de:	2701      	movs	r7, #1
100002e0:	b500      	push	{lr}
100002e2:	4c20      	ldr	r4, [pc, #128]	@ (10000364 <init_pins+0x90>)
100002e4:	0636      	lsls	r6, r6, #24
100002e6:	44a0      	add	r8, r4
100002e8:	cc20      	ldmia	r4!, {r5}
100002ea:	0028      	movs	r0, r5
100002ec:	f000 f9c2 	bl	10000674 <gpio_init>
100002f0:	003b      	movs	r3, r7
100002f2:	40ab      	lsls	r3, r5
100002f4:	6273      	str	r3, [r6, #36]	@ 0x24
100002f6:	6173      	str	r3, [r6, #20]
100002f8:	4544      	cmp	r4, r8
100002fa:	d1f5      	bne.n	100002e8 <init_pins+0x14>
100002fc:	2310      	movs	r3, #16
100002fe:	26d0      	movs	r6, #208	@ 0xd0
10000300:	4698      	mov	r8, r3
10000302:	2701      	movs	r7, #1
10000304:	4d18      	ldr	r5, [pc, #96]	@ (10000368 <init_pins+0x94>)
10000306:	0636      	lsls	r6, r6, #24
10000308:	44a8      	add	r8, r5
1000030a:	cd10      	ldmia	r5!, {r4}
1000030c:	0020      	movs	r0, r4
1000030e:	f000 f9b1 	bl	10000674 <gpio_init>
10000312:	003b      	movs	r3, r7
10000314:	40a3      	lsls	r3, r4
10000316:	2200      	movs	r2, #0
10000318:	2101      	movs	r1, #1
1000031a:	0020      	movs	r0, r4
1000031c:	62b3      	str	r3, [r6, #40]	@ 0x28
1000031e:	f000 f995 	bl	1000064c <gpio_set_pulls>
10000322:	4545      	cmp	r5, r8
10000324:	d1f1      	bne.n	1000030a <init_pins+0x36>
10000326:	2013      	movs	r0, #19
10000328:	f000 f9a4 	bl	10000674 <gpio_init>
1000032c:	2380      	movs	r3, #128	@ 0x80
1000032e:	031b      	lsls	r3, r3, #12
10000330:	6273      	str	r3, [r6, #36]	@ 0x24
10000332:	200b      	movs	r0, #11
10000334:	61b3      	str	r3, [r6, #24]
10000336:	f000 f99d 	bl	10000674 <gpio_init>
1000033a:	2380      	movs	r3, #128	@ 0x80
1000033c:	011b      	lsls	r3, r3, #4
1000033e:	6273      	str	r3, [r6, #36]	@ 0x24
10000340:	200c      	movs	r0, #12
10000342:	61b3      	str	r3, [r6, #24]
10000344:	f000 f996 	bl	10000674 <gpio_init>
10000348:	2380      	movs	r3, #128	@ 0x80
1000034a:	015b      	lsls	r3, r3, #5
1000034c:	6273      	str	r3, [r6, #36]	@ 0x24
1000034e:	200d      	movs	r0, #13
10000350:	61b3      	str	r3, [r6, #24]
10000352:	f000 f98f 	bl	10000674 <gpio_init>
10000356:	2380      	movs	r3, #128	@ 0x80
10000358:	019b      	lsls	r3, r3, #6
1000035a:	6273      	str	r3, [r6, #36]	@ 0x24
1000035c:	61b3      	str	r3, [r6, #24]
1000035e:	bc80      	pop	{r7}
10000360:	46b8      	mov	r8, r7
10000362:	bdf0      	pop	{r4, r5, r6, r7, pc}
10000364:	100039e4 	.word	0x100039e4
10000368:	100039d4 	.word	0x100039d4

1000036c <main>:
1000036c:	b5f0      	push	{r4, r5, r6, r7, lr}
1000036e:	46d6      	mov	lr, sl
10000370:	4646      	mov	r6, r8
10000372:	464f      	mov	r7, r9
10000374:	24d0      	movs	r4, #208	@ 0xd0
10000376:	b5c0      	push	{r6, r7, lr}
10000378:	f003 f974 	bl	10003664 <stdio_init_all>
1000037c:	f7ff ffaa 	bl	100002d4 <init_pins>
10000380:	4bb0      	ldr	r3, [pc, #704]	@ (10000644 <main+0x2d8>)
10000382:	2604      	movs	r6, #4
10000384:	4698      	mov	r8, r3
10000386:	2704      	movs	r7, #4
10000388:	0624      	lsls	r4, r4, #24
1000038a:	e06f      	b.n	1000046c <main+0x100>
1000038c:	2580      	movs	r5, #128	@ 0x80
1000038e:	6863      	ldr	r3, [r4, #4]
10000390:	421d      	tst	r5, r3
10000392:	d07c      	beq.n	1000048e <main+0x122>
10000394:	2580      	movs	r5, #128	@ 0x80
10000396:	6863      	ldr	r3, [r4, #4]
10000398:	006d      	lsls	r5, r5, #1
1000039a:	422b      	tst	r3, r5
1000039c:	d100      	bne.n	100003a0 <main+0x34>
1000039e:	e080      	b.n	100004a2 <main+0x136>
100003a0:	2580      	movs	r5, #128	@ 0x80
100003a2:	6863      	ldr	r3, [r4, #4]
100003a4:	00ad      	lsls	r5, r5, #2
100003a6:	422b      	tst	r3, r5
100003a8:	d100      	bne.n	100003ac <main+0x40>
100003aa:	e08f      	b.n	100004cc <main+0x160>
100003ac:	2308      	movs	r3, #8
100003ae:	2540      	movs	r5, #64	@ 0x40
100003b0:	6166      	str	r6, [r4, #20]
100003b2:	61a3      	str	r3, [r4, #24]
100003b4:	4699      	mov	r9, r3
100003b6:	6863      	ldr	r3, [r4, #4]
100003b8:	421d      	tst	r5, r3
100003ba:	d07c      	beq.n	100004b6 <main+0x14a>
100003bc:	2580      	movs	r5, #128	@ 0x80
100003be:	6863      	ldr	r3, [r4, #4]
100003c0:	421d      	tst	r5, r3
100003c2:	d100      	bne.n	100003c6 <main+0x5a>
100003c4:	e092      	b.n	100004ec <main+0x180>
100003c6:	2580      	movs	r5, #128	@ 0x80
100003c8:	6863      	ldr	r3, [r4, #4]
100003ca:	006d      	lsls	r5, r5, #1
100003cc:	422b      	tst	r3, r5
100003ce:	d100      	bne.n	100003d2 <main+0x66>
100003d0:	e097      	b.n	10000502 <main+0x196>
100003d2:	2580      	movs	r5, #128	@ 0x80
100003d4:	6863      	ldr	r3, [r4, #4]
100003d6:	00ad      	lsls	r5, r5, #2
100003d8:	422b      	tst	r3, r5
100003da:	d100      	bne.n	100003de <main+0x72>
100003dc:	e0a7      	b.n	1000052e <main+0x1c2>
100003de:	2308      	movs	r3, #8
100003e0:	2540      	movs	r5, #64	@ 0x40
100003e2:	6163      	str	r3, [r4, #20]
100003e4:	3308      	adds	r3, #8
100003e6:	61a3      	str	r3, [r4, #24]
100003e8:	4699      	mov	r9, r3
100003ea:	6863      	ldr	r3, [r4, #4]
100003ec:	421d      	tst	r5, r3
100003ee:	d100      	bne.n	100003f2 <main+0x86>
100003f0:	e092      	b.n	10000518 <main+0x1ac>
100003f2:	2580      	movs	r5, #128	@ 0x80
100003f4:	6863      	ldr	r3, [r4, #4]
100003f6:	421d      	tst	r5, r3
100003f8:	d100      	bne.n	100003fc <main+0x90>
100003fa:	e0a9      	b.n	10000550 <main+0x1e4>
100003fc:	2580      	movs	r5, #128	@ 0x80
100003fe:	6863      	ldr	r3, [r4, #4]
10000400:	006d      	lsls	r5, r5, #1
10000402:	422b      	tst	r3, r5
10000404:	d100      	bne.n	10000408 <main+0x9c>
10000406:	e0ae      	b.n	10000566 <main+0x1fa>
10000408:	2580      	movs	r5, #128	@ 0x80
1000040a:	6863      	ldr	r3, [r4, #4]
1000040c:	00ad      	lsls	r5, r5, #2
1000040e:	422b      	tst	r3, r5
10000410:	d100      	bne.n	10000414 <main+0xa8>
10000412:	e0be      	b.n	10000592 <main+0x226>
10000414:	2310      	movs	r3, #16
10000416:	2540      	movs	r5, #64	@ 0x40
10000418:	6163      	str	r3, [r4, #20]
1000041a:	3310      	adds	r3, #16
1000041c:	61a3      	str	r3, [r4, #24]
1000041e:	4699      	mov	r9, r3
10000420:	6863      	ldr	r3, [r4, #4]
10000422:	421d      	tst	r5, r3
10000424:	d100      	bne.n	10000428 <main+0xbc>
10000426:	e0a9      	b.n	1000057c <main+0x210>
10000428:	2580      	movs	r5, #128	@ 0x80
1000042a:	6863      	ldr	r3, [r4, #4]
1000042c:	421d      	tst	r5, r3
1000042e:	d100      	bne.n	10000432 <main+0xc6>
10000430:	e0c0      	b.n	100005b4 <main+0x248>
10000432:	2580      	movs	r5, #128	@ 0x80
10000434:	6863      	ldr	r3, [r4, #4]
10000436:	006d      	lsls	r5, r5, #1
10000438:	422b      	tst	r3, r5
1000043a:	d100      	bne.n	1000043e <main+0xd2>
1000043c:	e0c5      	b.n	100005ca <main+0x25e>
1000043e:	2580      	movs	r5, #128	@ 0x80
10000440:	6863      	ldr	r3, [r4, #4]
10000442:	00ad      	lsls	r5, r5, #2
10000444:	422b      	tst	r3, r5
10000446:	d100      	bne.n	1000044a <main+0xde>
10000448:	e0e5      	b.n	10000616 <main+0x2aa>
1000044a:	2320      	movs	r3, #32
1000044c:	6163      	str	r3, [r4, #20]
1000044e:	2380      	movs	r3, #128	@ 0x80
10000450:	011b      	lsls	r3, r3, #4
10000452:	61a3      	str	r3, [r4, #24]
10000454:	2380      	movs	r3, #128	@ 0x80
10000456:	015b      	lsls	r3, r3, #5
10000458:	61a3      	str	r3, [r4, #24]
1000045a:	2380      	movs	r3, #128	@ 0x80
1000045c:	019b      	lsls	r3, r3, #6
1000045e:	61a3      	str	r3, [r4, #24]
10000460:	2380      	movs	r3, #128	@ 0x80
10000462:	031b      	lsls	r3, r3, #12
10000464:	61a3      	str	r3, [r4, #24]
10000466:	2064      	movs	r0, #100	@ 0x64
10000468:	f000 fd0c 	bl	10000e84 <sleep_ms>
1000046c:	2540      	movs	r5, #64	@ 0x40
1000046e:	61a7      	str	r7, [r4, #24]
10000470:	6863      	ldr	r3, [r4, #4]
10000472:	421d      	tst	r5, r3
10000474:	d18a      	bne.n	1000038c <main+0x20>
10000476:	2014      	movs	r0, #20
10000478:	f000 fd04 	bl	10000e84 <sleep_ms>
1000047c:	6863      	ldr	r3, [r4, #4]
1000047e:	421d      	tst	r5, r3
10000480:	d184      	bne.n	1000038c <main+0x20>
10000482:	2131      	movs	r1, #49	@ 0x31
10000484:	6166      	str	r6, [r4, #20]
10000486:	4640      	mov	r0, r8
10000488:	f003 f9c2 	bl	10003810 <__wrap_printf>
1000048c:	e7eb      	b.n	10000466 <main+0xfa>
1000048e:	2014      	movs	r0, #20
10000490:	f000 fcf8 	bl	10000e84 <sleep_ms>
10000494:	6863      	ldr	r3, [r4, #4]
10000496:	421d      	tst	r5, r3
10000498:	d000      	beq.n	1000049c <main+0x130>
1000049a:	e77b      	b.n	10000394 <main+0x28>
1000049c:	2132      	movs	r1, #50	@ 0x32
1000049e:	6166      	str	r6, [r4, #20]
100004a0:	e7f1      	b.n	10000486 <main+0x11a>
100004a2:	2014      	movs	r0, #20
100004a4:	f000 fcee 	bl	10000e84 <sleep_ms>
100004a8:	6863      	ldr	r3, [r4, #4]
100004aa:	422b      	tst	r3, r5
100004ac:	d000      	beq.n	100004b0 <main+0x144>
100004ae:	e777      	b.n	100003a0 <main+0x34>
100004b0:	2133      	movs	r1, #51	@ 0x33
100004b2:	6166      	str	r6, [r4, #20]
100004b4:	e7e7      	b.n	10000486 <main+0x11a>
100004b6:	2014      	movs	r0, #20
100004b8:	f000 fce4 	bl	10000e84 <sleep_ms>
100004bc:	6863      	ldr	r3, [r4, #4]
100004be:	421d      	tst	r5, r3
100004c0:	d000      	beq.n	100004c4 <main+0x158>
100004c2:	e77b      	b.n	100003bc <main+0x50>
100004c4:	464b      	mov	r3, r9
100004c6:	2134      	movs	r1, #52	@ 0x34
100004c8:	6163      	str	r3, [r4, #20]
100004ca:	e7dc      	b.n	10000486 <main+0x11a>
100004cc:	2014      	movs	r0, #20
100004ce:	f000 fcd9 	bl	10000e84 <sleep_ms>
100004d2:	6863      	ldr	r3, [r4, #4]
100004d4:	422b      	tst	r3, r5
100004d6:	d000      	beq.n	100004da <main+0x16e>
100004d8:	e768      	b.n	100003ac <main+0x40>
100004da:	2141      	movs	r1, #65	@ 0x41
100004dc:	4640      	mov	r0, r8
100004de:	6166      	str	r6, [r4, #20]
100004e0:	f003 f996 	bl	10003810 <__wrap_printf>
100004e4:	2380      	movs	r3, #128	@ 0x80
100004e6:	011b      	lsls	r3, r3, #4
100004e8:	6163      	str	r3, [r4, #20]
100004ea:	e7bc      	b.n	10000466 <main+0xfa>
100004ec:	2014      	movs	r0, #20
100004ee:	f000 fcc9 	bl	10000e84 <sleep_ms>
100004f2:	6863      	ldr	r3, [r4, #4]
100004f4:	421d      	tst	r5, r3
100004f6:	d000      	beq.n	100004fa <main+0x18e>
100004f8:	e765      	b.n	100003c6 <main+0x5a>
100004fa:	2308      	movs	r3, #8
100004fc:	2135      	movs	r1, #53	@ 0x35
100004fe:	6163      	str	r3, [r4, #20]
10000500:	e7c1      	b.n	10000486 <main+0x11a>
10000502:	2014      	movs	r0, #20
10000504:	f000 fcbe 	bl	10000e84 <sleep_ms>
10000508:	6863      	ldr	r3, [r4, #4]
1000050a:	422b      	tst	r3, r5
1000050c:	d000      	beq.n	10000510 <main+0x1a4>
1000050e:	e760      	b.n	100003d2 <main+0x66>
10000510:	2308      	movs	r3, #8
10000512:	2136      	movs	r1, #54	@ 0x36
10000514:	6163      	str	r3, [r4, #20]
10000516:	e7b6      	b.n	10000486 <main+0x11a>
10000518:	2014      	movs	r0, #20
1000051a:	f000 fcb3 	bl	10000e84 <sleep_ms>
1000051e:	6863      	ldr	r3, [r4, #4]
10000520:	421d      	tst	r5, r3
10000522:	d000      	beq.n	10000526 <main+0x1ba>
10000524:	e765      	b.n	100003f2 <main+0x86>
10000526:	464b      	mov	r3, r9
10000528:	2137      	movs	r1, #55	@ 0x37
1000052a:	6163      	str	r3, [r4, #20]
1000052c:	e7ab      	b.n	10000486 <main+0x11a>
1000052e:	2014      	movs	r0, #20
10000530:	f000 fca8 	bl	10000e84 <sleep_ms>
10000534:	6863      	ldr	r3, [r4, #4]
10000536:	422b      	tst	r3, r5
10000538:	d000      	beq.n	1000053c <main+0x1d0>
1000053a:	e750      	b.n	100003de <main+0x72>
1000053c:	2308      	movs	r3, #8
1000053e:	2142      	movs	r1, #66	@ 0x42
10000540:	6163      	str	r3, [r4, #20]
10000542:	4640      	mov	r0, r8
10000544:	f003 f964 	bl	10003810 <__wrap_printf>
10000548:	2380      	movs	r3, #128	@ 0x80
1000054a:	015b      	lsls	r3, r3, #5
1000054c:	6163      	str	r3, [r4, #20]
1000054e:	e78a      	b.n	10000466 <main+0xfa>
10000550:	2014      	movs	r0, #20
10000552:	f000 fc97 	bl	10000e84 <sleep_ms>
10000556:	6863      	ldr	r3, [r4, #4]
10000558:	421d      	tst	r5, r3
1000055a:	d000      	beq.n	1000055e <main+0x1f2>
1000055c:	e74e      	b.n	100003fc <main+0x90>
1000055e:	2310      	movs	r3, #16
10000560:	2138      	movs	r1, #56	@ 0x38
10000562:	6163      	str	r3, [r4, #20]
10000564:	e78f      	b.n	10000486 <main+0x11a>
10000566:	2014      	movs	r0, #20
10000568:	f000 fc8c 	bl	10000e84 <sleep_ms>
1000056c:	6863      	ldr	r3, [r4, #4]
1000056e:	422b      	tst	r3, r5
10000570:	d000      	beq.n	10000574 <main+0x208>
10000572:	e749      	b.n	10000408 <main+0x9c>
10000574:	2310      	movs	r3, #16
10000576:	2139      	movs	r1, #57	@ 0x39
10000578:	6163      	str	r3, [r4, #20]
1000057a:	e784      	b.n	10000486 <main+0x11a>
1000057c:	2014      	movs	r0, #20
1000057e:	f000 fc81 	bl	10000e84 <sleep_ms>
10000582:	6863      	ldr	r3, [r4, #4]
10000584:	421d      	tst	r5, r3
10000586:	d000      	beq.n	1000058a <main+0x21e>
10000588:	e74e      	b.n	10000428 <main+0xbc>
1000058a:	464b      	mov	r3, r9
1000058c:	212a      	movs	r1, #42	@ 0x2a
1000058e:	6163      	str	r3, [r4, #20]
10000590:	e779      	b.n	10000486 <main+0x11a>
10000592:	2014      	movs	r0, #20
10000594:	f000 fc76 	bl	10000e84 <sleep_ms>
10000598:	6863      	ldr	r3, [r4, #4]
1000059a:	422b      	tst	r3, r5
1000059c:	d000      	beq.n	100005a0 <main+0x234>
1000059e:	e739      	b.n	10000414 <main+0xa8>
100005a0:	2310      	movs	r3, #16
100005a2:	2143      	movs	r1, #67	@ 0x43
100005a4:	6163      	str	r3, [r4, #20]
100005a6:	4640      	mov	r0, r8
100005a8:	f003 f932 	bl	10003810 <__wrap_printf>
100005ac:	2380      	movs	r3, #128	@ 0x80
100005ae:	019b      	lsls	r3, r3, #6
100005b0:	6163      	str	r3, [r4, #20]
100005b2:	e758      	b.n	10000466 <main+0xfa>
100005b4:	2014      	movs	r0, #20
100005b6:	f000 fc65 	bl	10000e84 <sleep_ms>
100005ba:	6863      	ldr	r3, [r4, #4]
100005bc:	421d      	tst	r5, r3
100005be:	d000      	beq.n	100005c2 <main+0x256>
100005c0:	e737      	b.n	10000432 <main+0xc6>
100005c2:	2320      	movs	r3, #32
100005c4:	2130      	movs	r1, #48	@ 0x30
100005c6:	6163      	str	r3, [r4, #20]
100005c8:	e75d      	b.n	10000486 <main+0x11a>
100005ca:	2014      	movs	r0, #20
100005cc:	f000 fc5a 	bl	10000e84 <sleep_ms>
100005d0:	6863      	ldr	r3, [r4, #4]
100005d2:	422b      	tst	r3, r5
100005d4:	d000      	beq.n	100005d8 <main+0x26c>
100005d6:	e732      	b.n	1000043e <main+0xd2>
100005d8:	2320      	movs	r3, #32
100005da:	2123      	movs	r1, #35	@ 0x23
100005dc:	6163      	str	r3, [r4, #20]
100005de:	4640      	mov	r0, r8
100005e0:	f003 f916 	bl	10003810 <__wrap_printf>
100005e4:	23d0      	movs	r3, #208	@ 0xd0
100005e6:	061b      	lsls	r3, r3, #24
100005e8:	469a      	mov	sl, r3
100005ea:	2380      	movs	r3, #128	@ 0x80
100005ec:	031b      	lsls	r3, r3, #12
100005ee:	2564      	movs	r5, #100	@ 0x64
100005f0:	4699      	mov	r9, r3
100005f2:	4653      	mov	r3, sl
100005f4:	464a      	mov	r2, r9
100005f6:	2100      	movs	r1, #0
100005f8:	615a      	str	r2, [r3, #20]
100005fa:	4813      	ldr	r0, [pc, #76]	@ (10000648 <main+0x2dc>)
100005fc:	f000 fc2e 	bl	10000e5c <sleep_us>
10000600:	4653      	mov	r3, sl
10000602:	464a      	mov	r2, r9
10000604:	2100      	movs	r1, #0
10000606:	4810      	ldr	r0, [pc, #64]	@ (10000648 <main+0x2dc>)
10000608:	619a      	str	r2, [r3, #24]
1000060a:	3d01      	subs	r5, #1
1000060c:	f000 fc26 	bl	10000e5c <sleep_us>
10000610:	2d00      	cmp	r5, #0
10000612:	d1ee      	bne.n	100005f2 <main+0x286>
10000614:	e727      	b.n	10000466 <main+0xfa>
10000616:	2014      	movs	r0, #20
10000618:	f000 fc34 	bl	10000e84 <sleep_ms>
1000061c:	6863      	ldr	r3, [r4, #4]
1000061e:	422b      	tst	r3, r5
10000620:	d000      	beq.n	10000624 <main+0x2b8>
10000622:	e712      	b.n	1000044a <main+0xde>
10000624:	2320      	movs	r3, #32
10000626:	2144      	movs	r1, #68	@ 0x44
10000628:	6163      	str	r3, [r4, #20]
1000062a:	4640      	mov	r0, r8
1000062c:	f003 f8f0 	bl	10003810 <__wrap_printf>
10000630:	2380      	movs	r3, #128	@ 0x80
10000632:	011b      	lsls	r3, r3, #4
10000634:	6163      	str	r3, [r4, #20]
10000636:	2380      	movs	r3, #128	@ 0x80
10000638:	015b      	lsls	r3, r3, #5
1000063a:	6163      	str	r3, [r4, #20]
1000063c:	2380      	movs	r3, #128	@ 0x80
1000063e:	019b      	lsls	r3, r3, #6
10000640:	6163      	str	r3, [r4, #20]
10000642:	e710      	b.n	10000466 <main+0xfa>
10000644:	10003908 	.word	0x10003908
10000648:	000004e2 	.word	0x000004e2

1000064c <gpio_set_pulls>:
1000064c:	4b07      	ldr	r3, [pc, #28]	@ (1000066c <gpio_set_pulls+0x20>)
1000064e:	0080      	lsls	r0, r0, #2
10000650:	18c3      	adds	r3, r0, r3
10000652:	681b      	ldr	r3, [r3, #0]
10000654:	00c9      	lsls	r1, r1, #3
10000656:	0092      	lsls	r2, r2, #2
10000658:	430a      	orrs	r2, r1
1000065a:	405a      	eors	r2, r3
1000065c:	230c      	movs	r3, #12
1000065e:	4013      	ands	r3, r2
10000660:	4a03      	ldr	r2, [pc, #12]	@ (10000670 <gpio_set_pulls+0x24>)
10000662:	4694      	mov	ip, r2
10000664:	4460      	add	r0, ip
10000666:	6003      	str	r3, [r0, #0]
10000668:	4770      	bx	lr
1000066a:	46c0      	nop			@ (mov r8, r8)
1000066c:	4001c004 	.word	0x4001c004
10000670:	4001d004 	.word	0x4001d004

10000674 <gpio_init>:
10000674:	2301      	movs	r3, #1
10000676:	22d0      	movs	r2, #208	@ 0xd0
10000678:	4083      	lsls	r3, r0
1000067a:	0612      	lsls	r2, r2, #24
1000067c:	6293      	str	r3, [r2, #40]	@ 0x28
1000067e:	6193      	str	r3, [r2, #24]
10000680:	4a09      	ldr	r2, [pc, #36]	@ (100006a8 <gpio_init+0x34>)
10000682:	0083      	lsls	r3, r0, #2
10000684:	189a      	adds	r2, r3, r2
10000686:	6811      	ldr	r1, [r2, #0]
10000688:	2240      	movs	r2, #64	@ 0x40
1000068a:	4051      	eors	r1, r2
1000068c:	3280      	adds	r2, #128	@ 0x80
1000068e:	400a      	ands	r2, r1
10000690:	4906      	ldr	r1, [pc, #24]	@ (100006ac <gpio_init+0x38>)
10000692:	00c0      	lsls	r0, r0, #3
10000694:	468c      	mov	ip, r1
10000696:	4463      	add	r3, ip
10000698:	601a      	str	r2, [r3, #0]
1000069a:	4b05      	ldr	r3, [pc, #20]	@ (100006b0 <gpio_init+0x3c>)
1000069c:	469c      	mov	ip, r3
1000069e:	2305      	movs	r3, #5
100006a0:	4460      	add	r0, ip
100006a2:	6043      	str	r3, [r0, #4]
100006a4:	4770      	bx	lr
100006a6:	46c0      	nop			@ (mov r8, r8)
100006a8:	4001c004 	.word	0x4001c004
100006ac:	4001d004 	.word	0x4001d004
100006b0:	40014000 	.word	0x40014000

100006b4 <panic>:
100006b4:	b40f      	push	{r0, r1, r2, r3}
100006b6:	b500      	push	{lr}
100006b8:	4808      	ldr	r0, [pc, #32]	@ (100006dc <panic+0x28>)
100006ba:	b083      	sub	sp, #12
100006bc:	f003 f820 	bl	10003700 <__wrap_puts>
100006c0:	9b04      	ldr	r3, [sp, #16]
100006c2:	2b00      	cmp	r3, #0
100006c4:	d007      	beq.n	100006d6 <panic+0x22>
100006c6:	a905      	add	r1, sp, #20
100006c8:	0018      	movs	r0, r3
100006ca:	9101      	str	r1, [sp, #4]
100006cc:	f002 fe92 	bl	100033f4 <weak_raw_vprintf>
100006d0:	4803      	ldr	r0, [pc, #12]	@ (100006e0 <panic+0x2c>)
100006d2:	f003 f815 	bl	10003700 <__wrap_puts>
100006d6:	2001      	movs	r0, #1
100006d8:	f002 fea4 	bl	10003424 <_exit>
100006dc:	10003920 	.word	0x10003920
100006e0:	10003930 	.word	0x10003930

100006e4 <hw_claim_or_assert>:
100006e4:	b570      	push	{r4, r5, r6, lr}
100006e6:	f3ef 8c10 	mrs	ip, PRIMASK
100006ea:	b672      	cpsid	i
100006ec:	4d0d      	ldr	r5, [pc, #52]	@ (10000724 <hw_claim_or_assert+0x40>)
100006ee:	682b      	ldr	r3, [r5, #0]
100006f0:	2b00      	cmp	r3, #0
100006f2:	d0fc      	beq.n	100006ee <hw_claim_or_assert+0xa>
100006f4:	f3bf 8f5f 	dmb	sy
100006f8:	2407      	movs	r4, #7
100006fa:	08cb      	lsrs	r3, r1, #3
100006fc:	18c6      	adds	r6, r0, r3
100006fe:	5cc0      	ldrb	r0, [r0, r3]
10000700:	2301      	movs	r3, #1
10000702:	400c      	ands	r4, r1
10000704:	40a3      	lsls	r3, r4
10000706:	001c      	movs	r4, r3
10000708:	4004      	ands	r4, r0
1000070a:	4203      	tst	r3, r0
1000070c:	d107      	bne.n	1000071e <hw_claim_or_assert+0x3a>
1000070e:	4318      	orrs	r0, r3
10000710:	7030      	strb	r0, [r6, #0]
10000712:	f3bf 8f5f 	dmb	sy
10000716:	602c      	str	r4, [r5, #0]
10000718:	f38c 8810 	msr	PRIMASK, ip
1000071c:	bd70      	pop	{r4, r5, r6, pc}
1000071e:	0010      	movs	r0, r2
10000720:	f7ff ffc8 	bl	100006b4 <panic>
10000724:	d000012c 	.word	0xd000012c

10000728 <next_striped_spin_lock_num>:
10000728:	4a04      	ldr	r2, [pc, #16]	@ (1000073c <next_striped_spin_lock_num+0x14>)
1000072a:	7810      	ldrb	r0, [r2, #0]
1000072c:	1c43      	adds	r3, r0, #1
1000072e:	b2db      	uxtb	r3, r3
10000730:	2b17      	cmp	r3, #23
10000732:	d900      	bls.n	10000736 <next_striped_spin_lock_num+0xe>
10000734:	2310      	movs	r3, #16
10000736:	7013      	strb	r3, [r2, #0]
10000738:	4770      	bx	lr
1000073a:	46c0      	nop			@ (mov r8, r8)
1000073c:	20000198 	.word	0x20000198

10000740 <spin_locks_reset>:
10000740:	2100      	movs	r1, #0
10000742:	4b04      	ldr	r3, [pc, #16]	@ (10000754 <spin_locks_reset+0x14>)
10000744:	4a04      	ldr	r2, [pc, #16]	@ (10000758 <spin_locks_reset+0x18>)
10000746:	f3bf 8f5f 	dmb	sy
1000074a:	c302      	stmia	r3!, {r1}
1000074c:	4293      	cmp	r3, r2
1000074e:	d1fa      	bne.n	10000746 <spin_locks_reset+0x6>
10000750:	4770      	bx	lr
10000752:	46c0      	nop			@ (mov r8, r8)
10000754:	d0000100 	.word	0xd0000100
10000758:	d0000180 	.word	0xd0000180

1000075c <runtime_init_per_core_irq_priorities>:
1000075c:	4b05      	ldr	r3, [pc, #20]	@ (10000774 <runtime_init_per_core_irq_priorities+0x18>)
1000075e:	4a06      	ldr	r2, [pc, #24]	@ (10000778 <runtime_init_per_core_irq_priorities+0x1c>)
10000760:	6013      	str	r3, [r2, #0]
10000762:	4a06      	ldr	r2, [pc, #24]	@ (1000077c <runtime_init_per_core_irq_priorities+0x20>)
10000764:	6013      	str	r3, [r2, #0]
10000766:	6053      	str	r3, [r2, #4]
10000768:	6093      	str	r3, [r2, #8]
1000076a:	60d3      	str	r3, [r2, #12]
1000076c:	6113      	str	r3, [r2, #16]
1000076e:	6153      	str	r3, [r2, #20]
10000770:	6193      	str	r3, [r2, #24]
10000772:	4770      	bx	lr
10000774:	80808080 	.word	0x80808080
10000778:	e000e400 	.word	0xe000e400
1000077c:	e000e404 	.word	0xe000e404

10000780 <irq_set_enabled>:
10000780:	231f      	movs	r3, #31
10000782:	4018      	ands	r0, r3
10000784:	3b1e      	subs	r3, #30
10000786:	4083      	lsls	r3, r0
10000788:	2900      	cmp	r1, #0
1000078a:	d005      	beq.n	10000798 <irq_set_enabled+0x18>
1000078c:	21c0      	movs	r1, #192	@ 0xc0
1000078e:	4a04      	ldr	r2, [pc, #16]	@ (100007a0 <irq_set_enabled+0x20>)
10000790:	0049      	lsls	r1, r1, #1
10000792:	5053      	str	r3, [r2, r1]
10000794:	6013      	str	r3, [r2, #0]
10000796:	4770      	bx	lr
10000798:	2280      	movs	r2, #128	@ 0x80
1000079a:	4901      	ldr	r1, [pc, #4]	@ (100007a0 <irq_set_enabled+0x20>)
1000079c:	508b      	str	r3, [r1, r2]
1000079e:	e7fa      	b.n	10000796 <irq_set_enabled+0x16>
100007a0:	e000e100 	.word	0xe000e100

100007a4 <irq_set_exclusive_handler>:
100007a4:	b570      	push	{r4, r5, r6, lr}
100007a6:	000d      	movs	r5, r1
100007a8:	f3ef 8610 	mrs	r6, PRIMASK
100007ac:	b672      	cpsid	i
100007ae:	4a0f      	ldr	r2, [pc, #60]	@ (100007ec <irq_set_exclusive_handler+0x48>)
100007b0:	6813      	ldr	r3, [r2, #0]
100007b2:	2b00      	cmp	r3, #0
100007b4:	d0fc      	beq.n	100007b0 <irq_set_exclusive_handler+0xc>
100007b6:	f3bf 8f5f 	dmb	sy
100007ba:	4b0d      	ldr	r3, [pc, #52]	@ (100007f0 <irq_set_exclusive_handler+0x4c>)
100007bc:	3010      	adds	r0, #16
100007be:	689b      	ldr	r3, [r3, #8]
100007c0:	0084      	lsls	r4, r0, #2
100007c2:	591b      	ldr	r3, [r3, r4]
100007c4:	4a0b      	ldr	r2, [pc, #44]	@ (100007f4 <irq_set_exclusive_handler+0x50>)
100007c6:	4293      	cmp	r3, r2
100007c8:	d003      	beq.n	100007d2 <irq_set_exclusive_handler+0x2e>
100007ca:	429d      	cmp	r5, r3
100007cc:	d001      	beq.n	100007d2 <irq_set_exclusive_handler+0x2e>
100007ce:	f000 fda7 	bl	10001320 <hard_assertion_failure>
100007d2:	4b07      	ldr	r3, [pc, #28]	@ (100007f0 <irq_set_exclusive_handler+0x4c>)
100007d4:	689b      	ldr	r3, [r3, #8]
100007d6:	511d      	str	r5, [r3, r4]
100007d8:	f3bf 8f5f 	dmb	sy
100007dc:	f3bf 8f5f 	dmb	sy
100007e0:	2200      	movs	r2, #0
100007e2:	4b02      	ldr	r3, [pc, #8]	@ (100007ec <irq_set_exclusive_handler+0x48>)
100007e4:	601a      	str	r2, [r3, #0]
100007e6:	f386 8810 	msr	PRIMASK, r6
100007ea:	bd70      	pop	{r4, r5, r6, pc}
100007ec:	d0000124 	.word	0xd0000124
100007f0:	e000ed00 	.word	0xe000ed00
100007f4:	100001cd 	.word	0x100001cd

100007f8 <lock_init>:
100007f8:	4b02      	ldr	r3, [pc, #8]	@ (10000804 <lock_init+0xc>)
100007fa:	469c      	mov	ip, r3
100007fc:	4461      	add	r1, ip
100007fe:	0089      	lsls	r1, r1, #2
10000800:	6001      	str	r1, [r0, #0]
10000802:	4770      	bx	lr
10000804:	34000040 	.word	0x34000040

10000808 <runtime_init_mutex>:
10000808:	b570      	push	{r4, r5, r6, lr}
1000080a:	4c11      	ldr	r4, [pc, #68]	@ (10000850 <runtime_init_mutex+0x48>)
1000080c:	4d11      	ldr	r5, [pc, #68]	@ (10000854 <runtime_init_mutex+0x4c>)
1000080e:	42ac      	cmp	r4, r5
10000810:	d20f      	bcs.n	10000832 <runtime_init_mutex+0x2a>
10000812:	26ff      	movs	r6, #255	@ 0xff
10000814:	6823      	ldr	r3, [r4, #0]
10000816:	2b00      	cmp	r3, #0
10000818:	d00c      	beq.n	10000834 <runtime_init_mutex+0x2c>
1000081a:	f7ff ff85 	bl	10000728 <next_striped_spin_lock_num>
1000081e:	0001      	movs	r1, r0
10000820:	0020      	movs	r0, r4
10000822:	f7ff ffe9 	bl	100007f8 <lock_init>
10000826:	80a6      	strh	r6, [r4, #4]
10000828:	f3bf 8f5f 	dmb	sy
1000082c:	3408      	adds	r4, #8
1000082e:	42ac      	cmp	r4, r5
10000830:	d3f0      	bcc.n	10000814 <runtime_init_mutex+0xc>
10000832:	bd70      	pop	{r4, r5, r6, pc}
10000834:	f7ff ff78 	bl	10000728 <next_striped_spin_lock_num>
10000838:	0001      	movs	r1, r0
1000083a:	0020      	movs	r0, r4
1000083c:	f7ff ffdc 	bl	100007f8 <lock_init>
10000840:	7126      	strb	r6, [r4, #4]
10000842:	f3bf 8f5f 	dmb	sy
10000846:	3408      	adds	r4, #8
10000848:	42ac      	cmp	r4, r5
1000084a:	d3e3      	bcc.n	10000814 <runtime_init_mutex+0xc>
1000084c:	e7f1      	b.n	10000832 <runtime_init_mutex+0x2a>
1000084e:	46c0      	nop			@ (mov r8, r8)
10000850:	200001e0 	.word	0x200001e0
10000854:	200001e8 	.word	0x200001e8

10000858 <sleep_until_callback>:
10000858:	4b0a      	ldr	r3, [pc, #40]	@ (10000884 <sleep_until_callback+0x2c>)
1000085a:	6819      	ldr	r1, [r3, #0]
1000085c:	f3ef 8010 	mrs	r0, PRIMASK
10000860:	b672      	cpsid	i
10000862:	680a      	ldr	r2, [r1, #0]
10000864:	2a00      	cmp	r2, #0
10000866:	d0fc      	beq.n	10000862 <sleep_until_callback+0xa>
10000868:	f3bf 8f5f 	dmb	sy
1000086c:	681b      	ldr	r3, [r3, #0]
1000086e:	f3bf 8f5f 	dmb	sy
10000872:	2200      	movs	r2, #0
10000874:	601a      	str	r2, [r3, #0]
10000876:	f380 8810 	msr	PRIMASK, r0
1000087a:	bf40      	sev
1000087c:	2000      	movs	r0, #0
1000087e:	2100      	movs	r1, #0
10000880:	4770      	bx	lr
10000882:	46c0      	nop			@ (mov r8, r8)
10000884:	200005cc 	.word	0x200005cc

10000888 <alarm_pool_irq_handler>:
10000888:	b5f0      	push	{r4, r5, r6, r7, lr}
1000088a:	46de      	mov	lr, fp
1000088c:	4657      	mov	r7, sl
1000088e:	464e      	mov	r6, r9
10000890:	4645      	mov	r5, r8
10000892:	b5e0      	push	{r5, r6, r7, lr}
10000894:	b083      	sub	sp, #12
10000896:	f3ef 8205 	mrs	r2, IPSR
1000089a:	2303      	movs	r3, #3
1000089c:	4013      	ands	r3, r2
1000089e:	4ab5      	ldr	r2, [pc, #724]	@ (10000b74 <alarm_pool_irq_handler+0x2ec>)
100008a0:	0099      	lsls	r1, r3, #2
100008a2:	5852      	ldr	r2, [r2, r1]
100008a4:	9100      	str	r1, [sp, #0]
100008a6:	4690      	mov	r8, r2
100008a8:	2201      	movs	r2, #1
100008aa:	409a      	lsls	r2, r3
100008ac:	4bb2      	ldr	r3, [pc, #712]	@ (10000b78 <alarm_pool_irq_handler+0x2f0>)
100008ae:	4693      	mov	fp, r2
100008b0:	601a      	str	r2, [r3, #0]
100008b2:	4bb2      	ldr	r3, [pc, #712]	@ (10000b7c <alarm_pool_irq_handler+0x2f4>)
100008b4:	9301      	str	r3, [sp, #4]
100008b6:	e02e      	b.n	10000916 <alarm_pool_irq_handler+0x8e>
100008b8:	4643      	mov	r3, r8
100008ba:	889b      	ldrh	r3, [r3, #4]
100008bc:	b21b      	sxth	r3, r3
100008be:	2b00      	cmp	r3, #0
100008c0:	db00      	blt.n	100008c4 <alarm_pool_irq_handler+0x3c>
100008c2:	e099      	b.n	100009f8 <alarm_pool_irq_handler+0x170>
100008c4:	4643      	mov	r3, r8
100008c6:	799b      	ldrb	r3, [r3, #6]
100008c8:	2b00      	cmp	r3, #0
100008ca:	d000      	beq.n	100008ce <alarm_pool_irq_handler+0x46>
100008cc:	e0dd      	b.n	10000a8a <alarm_pool_irq_handler+0x202>
100008ce:	4643      	mov	r3, r8
100008d0:	2408      	movs	r4, #8
100008d2:	5f1c      	ldrsh	r4, [r3, r4]
100008d4:	2c00      	cmp	r4, #0
100008d6:	da00      	bge.n	100008da <alarm_pool_irq_handler+0x52>
100008d8:	e106      	b.n	10000ae8 <alarm_pool_irq_handler+0x260>
100008da:	4643      	mov	r3, r8
100008dc:	695a      	ldr	r2, [r3, #20]
100008de:	0063      	lsls	r3, r4, #1
100008e0:	191b      	adds	r3, r3, r4
100008e2:	00db      	lsls	r3, r3, #3
100008e4:	18d3      	adds	r3, r2, r3
100008e6:	689d      	ldr	r5, [r3, #8]
100008e8:	68dc      	ldr	r4, [r3, #12]
100008ea:	1c6b      	adds	r3, r5, #1
100008ec:	d100      	bne.n	100008f0 <alarm_pool_irq_handler+0x68>
100008ee:	e107      	b.n	10000b00 <alarm_pool_irq_handler+0x278>
100008f0:	4ba3      	ldr	r3, [pc, #652]	@ (10000b80 <alarm_pool_irq_handler+0x2f8>)
100008f2:	9900      	ldr	r1, [sp, #0]
100008f4:	469c      	mov	ip, r3
100008f6:	4461      	add	r1, ip
100008f8:	6a9a      	ldr	r2, [r3, #40]	@ 0x28
100008fa:	690b      	ldr	r3, [r1, #16]
100008fc:	1aa8      	subs	r0, r5, r2
100008fe:	1a9b      	subs	r3, r3, r2
10000900:	4298      	cmp	r0, r3
10000902:	d200      	bcs.n	10000906 <alarm_pool_irq_handler+0x7e>
10000904:	610d      	str	r5, [r1, #16]
10000906:	489e      	ldr	r0, [pc, #632]	@ (10000b80 <alarm_pool_irq_handler+0x2f8>)
10000908:	f000 fb52 	bl	10000fb0 <timer_time_us_64>
1000090c:	428c      	cmp	r4, r1
1000090e:	dd00      	ble.n	10000912 <alarm_pool_irq_handler+0x8a>
10000910:	e0ea      	b.n	10000ae8 <alarm_pool_irq_handler+0x260>
10000912:	d100      	bne.n	10000916 <alarm_pool_irq_handler+0x8e>
10000914:	e126      	b.n	10000b64 <alarm_pool_irq_handler+0x2dc>
10000916:	465b      	mov	r3, fp
10000918:	4899      	ldr	r0, [pc, #612]	@ (10000b80 <alarm_pool_irq_handler+0x2f8>)
1000091a:	6343      	str	r3, [r0, #52]	@ 0x34
1000091c:	4643      	mov	r3, r8
1000091e:	2208      	movs	r2, #8
10000920:	5e9b      	ldrsh	r3, [r3, r2]
10000922:	4699      	mov	r9, r3
10000924:	2b00      	cmp	r3, #0
10000926:	dbc7      	blt.n	100008b8 <alarm_pool_irq_handler+0x30>
10000928:	4642      	mov	r2, r8
1000092a:	6952      	ldr	r2, [r2, #20]
1000092c:	005b      	lsls	r3, r3, #1
1000092e:	4692      	mov	sl, r2
10000930:	444b      	add	r3, r9
10000932:	00db      	lsls	r3, r3, #3
10000934:	449a      	add	sl, r3
10000936:	4653      	mov	r3, sl
10000938:	689e      	ldr	r6, [r3, #8]
1000093a:	68df      	ldr	r7, [r3, #12]
1000093c:	f000 fb38 	bl	10000fb0 <timer_time_us_64>
10000940:	428f      	cmp	r7, r1
10000942:	dcb9      	bgt.n	100008b8 <alarm_pool_irq_handler+0x30>
10000944:	d100      	bne.n	10000948 <alarm_pool_irq_handler+0xc0>
10000946:	e100      	b.n	10000b4a <alarm_pool_irq_handler+0x2c2>
10000948:	2f00      	cmp	r7, #0
1000094a:	da00      	bge.n	1000094e <alarm_pool_irq_handler+0xc6>
1000094c:	e0e1      	b.n	10000b12 <alarm_pool_irq_handler+0x28a>
1000094e:	4652      	mov	r2, sl
10000950:	4653      	mov	r3, sl
10000952:	6954      	ldr	r4, [r2, #20]
10000954:	691b      	ldr	r3, [r3, #16]
10000956:	9a01      	ldr	r2, [sp, #4]
10000958:	4293      	cmp	r3, r2
1000095a:	d100      	bne.n	1000095e <alarm_pool_irq_handler+0xd6>
1000095c:	e0d4      	b.n	10000b08 <alarm_pool_irq_handler+0x280>
1000095e:	4641      	mov	r1, r8
10000960:	4652      	mov	r2, sl
10000962:	2008      	movs	r0, #8
10000964:	5e08      	ldrsh	r0, [r1, r0]
10000966:	8852      	ldrh	r2, [r2, #2]
10000968:	0400      	lsls	r0, r0, #16
1000096a:	0021      	movs	r1, r4
1000096c:	4310      	orrs	r0, r2
1000096e:	4798      	blx	r3
10000970:	0004      	movs	r4, r0
10000972:	000d      	movs	r5, r1
10000974:	0023      	movs	r3, r4
10000976:	432b      	orrs	r3, r5
10000978:	d100      	bne.n	1000097c <alarm_pool_irq_handler+0xf4>
1000097a:	e0ca      	b.n	10000b12 <alarm_pool_irq_handler+0x28a>
1000097c:	2d00      	cmp	r5, #0
1000097e:	db00      	blt.n	10000982 <alarm_pool_irq_handler+0xfa>
10000980:	e0e7      	b.n	10000b52 <alarm_pool_irq_handler+0x2ca>
10000982:	0030      	movs	r0, r6
10000984:	0039      	movs	r1, r7
10000986:	1b00      	subs	r0, r0, r4
10000988:	41a9      	sbcs	r1, r5
1000098a:	4653      	mov	r3, sl
1000098c:	6098      	str	r0, [r3, #8]
1000098e:	60d9      	str	r1, [r3, #12]
10000990:	2200      	movs	r2, #0
10000992:	5e9a      	ldrsh	r2, [r3, r2]
10000994:	2a00      	cmp	r2, #0
10000996:	db8f      	blt.n	100008b8 <alarm_pool_irq_handler+0x30>
10000998:	4643      	mov	r3, r8
1000099a:	695d      	ldr	r5, [r3, #20]
1000099c:	0053      	lsls	r3, r2, #1
1000099e:	189c      	adds	r4, r3, r2
100009a0:	00e4      	lsls	r4, r4, #3
100009a2:	192c      	adds	r4, r5, r4
100009a4:	68a7      	ldr	r7, [r4, #8]
100009a6:	68e4      	ldr	r4, [r4, #12]
100009a8:	428c      	cmp	r4, r1
100009aa:	dd00      	ble.n	100009ae <alarm_pool_irq_handler+0x126>
100009ac:	e784      	b.n	100008b8 <alarm_pool_irq_handler+0x30>
100009ae:	d102      	bne.n	100009b6 <alarm_pool_irq_handler+0x12e>
100009b0:	4287      	cmp	r7, r0
100009b2:	d900      	bls.n	100009b6 <alarm_pool_irq_handler+0x12e>
100009b4:	e780      	b.n	100008b8 <alarm_pool_irq_handler+0x30>
100009b6:	4646      	mov	r6, r8
100009b8:	8132      	strh	r2, [r6, #8]
100009ba:	3608      	adds	r6, #8
100009bc:	e00d      	b.n	100009da <alarm_pool_irq_handler+0x152>
100009be:	428c      	cmp	r4, r1
100009c0:	d100      	bne.n	100009c4 <alarm_pool_irq_handler+0x13c>
100009c2:	e0d3      	b.n	10000b6c <alarm_pool_irq_handler+0x2e4>
100009c4:	001e      	movs	r6, r3
100009c6:	2300      	movs	r3, #0
100009c8:	5ef2      	ldrsh	r2, [r6, r3]
100009ca:	2a00      	cmp	r2, #0
100009cc:	db0a      	blt.n	100009e4 <alarm_pool_irq_handler+0x15c>
100009ce:	0053      	lsls	r3, r2, #1
100009d0:	189c      	adds	r4, r3, r2
100009d2:	00e4      	lsls	r4, r4, #3
100009d4:	192c      	adds	r4, r5, r4
100009d6:	68a7      	ldr	r7, [r4, #8]
100009d8:	68e4      	ldr	r4, [r4, #12]
100009da:	189b      	adds	r3, r3, r2
100009dc:	00db      	lsls	r3, r3, #3
100009de:	18eb      	adds	r3, r5, r3
100009e0:	428c      	cmp	r4, r1
100009e2:	ddec      	ble.n	100009be <alarm_pool_irq_handler+0x136>
100009e4:	4653      	mov	r3, sl
100009e6:	801a      	strh	r2, [r3, #0]
100009e8:	464b      	mov	r3, r9
100009ea:	8033      	strh	r3, [r6, #0]
100009ec:	4643      	mov	r3, r8
100009ee:	889b      	ldrh	r3, [r3, #4]
100009f0:	b21b      	sxth	r3, r3
100009f2:	2b00      	cmp	r3, #0
100009f4:	da00      	bge.n	100009f8 <alarm_pool_irq_handler+0x170>
100009f6:	e765      	b.n	100008c4 <alarm_pool_irq_handler+0x3c>
100009f8:	4643      	mov	r3, r8
100009fa:	691a      	ldr	r2, [r3, #16]
100009fc:	f3ef 8110 	mrs	r1, PRIMASK
10000a00:	b672      	cpsid	i
10000a02:	6813      	ldr	r3, [r2, #0]
10000a04:	2b00      	cmp	r3, #0
10000a06:	d0fc      	beq.n	10000a02 <alarm_pool_irq_handler+0x17a>
10000a08:	f3bf 8f5f 	dmb	sy
10000a0c:	4643      	mov	r3, r8
10000a0e:	889e      	ldrh	r6, [r3, #4]
10000a10:	2301      	movs	r3, #1
10000a12:	4642      	mov	r2, r8
10000a14:	425b      	negs	r3, r3
10000a16:	8093      	strh	r3, [r2, #4]
10000a18:	b236      	sxth	r6, r6
10000a1a:	6913      	ldr	r3, [r2, #16]
10000a1c:	f3bf 8f5f 	dmb	sy
10000a20:	2200      	movs	r2, #0
10000a22:	601a      	str	r2, [r3, #0]
10000a24:	f381 8810 	msr	PRIMASK, r1
10000a28:	2e00      	cmp	r6, #0
10000a2a:	da00      	bge.n	10000a2e <alarm_pool_irq_handler+0x1a6>
10000a2c:	e74a      	b.n	100008c4 <alarm_pool_irq_handler+0x3c>
10000a2e:	4643      	mov	r3, r8
10000a30:	695d      	ldr	r5, [r3, #20]
10000a32:	3308      	adds	r3, #8
10000a34:	4642      	mov	r2, r8
10000a36:	469c      	mov	ip, r3
10000a38:	0077      	lsls	r7, r6, #1
10000a3a:	19bf      	adds	r7, r7, r6
10000a3c:	00ff      	lsls	r7, r7, #3
10000a3e:	19ef      	adds	r7, r5, r7
10000a40:	68bb      	ldr	r3, [r7, #8]
10000a42:	4660      	mov	r0, ip
10000a44:	4698      	mov	r8, r3
10000a46:	2308      	movs	r3, #8
10000a48:	5ed1      	ldrsh	r1, [r2, r3]
10000a4a:	4692      	mov	sl, r2
10000a4c:	68fc      	ldr	r4, [r7, #12]
10000a4e:	2900      	cmp	r1, #0
10000a50:	da07      	bge.n	10000a62 <alarm_pool_irq_handler+0x1da>
10000a52:	e00e      	b.n	10000a72 <alarm_pool_irq_handler+0x1ea>
10000a54:	42a2      	cmp	r2, r4
10000a56:	d04f      	beq.n	10000af8 <alarm_pool_irq_handler+0x270>
10000a58:	0018      	movs	r0, r3
10000a5a:	2300      	movs	r3, #0
10000a5c:	5ec1      	ldrsh	r1, [r0, r3]
10000a5e:	2900      	cmp	r1, #0
10000a60:	db06      	blt.n	10000a70 <alarm_pool_irq_handler+0x1e8>
10000a62:	004b      	lsls	r3, r1, #1
10000a64:	185b      	adds	r3, r3, r1
10000a66:	00db      	lsls	r3, r3, #3
10000a68:	18eb      	adds	r3, r5, r3
10000a6a:	68da      	ldr	r2, [r3, #12]
10000a6c:	42a2      	cmp	r2, r4
10000a6e:	ddf1      	ble.n	10000a54 <alarm_pool_irq_handler+0x1cc>
10000a70:	4652      	mov	r2, sl
10000a72:	8006      	strh	r6, [r0, #0]
10000a74:	2300      	movs	r3, #0
10000a76:	5efe      	ldrsh	r6, [r7, r3]
10000a78:	8039      	strh	r1, [r7, #0]
10000a7a:	2e00      	cmp	r6, #0
10000a7c:	dadc      	bge.n	10000a38 <alarm_pool_irq_handler+0x1b0>
10000a7e:	4690      	mov	r8, r2
10000a80:	4643      	mov	r3, r8
10000a82:	799b      	ldrb	r3, [r3, #6]
10000a84:	2b00      	cmp	r3, #0
10000a86:	d100      	bne.n	10000a8a <alarm_pool_irq_handler+0x202>
10000a88:	e721      	b.n	100008ce <alarm_pool_irq_handler+0x46>
10000a8a:	2300      	movs	r3, #0
10000a8c:	4642      	mov	r2, r8
10000a8e:	7193      	strb	r3, [r2, #6]
10000a90:	4643      	mov	r3, r8
10000a92:	4646      	mov	r6, r8
10000a94:	2108      	movs	r1, #8
10000a96:	5e59      	ldrsh	r1, [r3, r1]
10000a98:	3608      	adds	r6, #8
10000a9a:	1c4b      	adds	r3, r1, #1
10000a9c:	d024      	beq.n	10000ae8 <alarm_pool_irq_handler+0x260>
10000a9e:	4647      	mov	r7, r8
10000aa0:	4689      	mov	r9, r1
10000aa2:	6955      	ldr	r5, [r2, #20]
10000aa4:	e002      	b.n	10000aac <alarm_pool_irq_handler+0x224>
10000aa6:	0006      	movs	r6, r0
10000aa8:	1c4b      	adds	r3, r1, #1
10000aaa:	d018      	beq.n	10000ade <alarm_pool_irq_handler+0x256>
10000aac:	004b      	lsls	r3, r1, #1
10000aae:	185b      	adds	r3, r3, r1
10000ab0:	00db      	lsls	r3, r3, #3
10000ab2:	18e8      	adds	r0, r5, r3
10000ab4:	000a      	movs	r2, r1
10000ab6:	468c      	mov	ip, r1
10000ab8:	5ee9      	ldrsh	r1, [r5, r3]
10000aba:	8843      	ldrh	r3, [r0, #2]
10000abc:	b21b      	sxth	r3, r3
10000abe:	2b00      	cmp	r3, #0
10000ac0:	daf1      	bge.n	10000aa6 <alarm_pool_irq_handler+0x21e>
10000ac2:	2301      	movs	r3, #1
10000ac4:	425b      	negs	r3, r3
10000ac6:	17dc      	asrs	r4, r3, #31
10000ac8:	6083      	str	r3, [r0, #8]
10000aca:	60c4      	str	r4, [r0, #12]
10000acc:	454a      	cmp	r2, r9
10000ace:	d003      	beq.n	10000ad8 <alarm_pool_irq_handler+0x250>
10000ad0:	8031      	strh	r1, [r6, #0]
10000ad2:	893b      	ldrh	r3, [r7, #8]
10000ad4:	8003      	strh	r3, [r0, #0]
10000ad6:	813a      	strh	r2, [r7, #8]
10000ad8:	46e1      	mov	r9, ip
10000ada:	1c4b      	adds	r3, r1, #1
10000adc:	d1e6      	bne.n	10000aac <alarm_pool_irq_handler+0x224>
10000ade:	464c      	mov	r4, r9
10000ae0:	46b8      	mov	r8, r7
10000ae2:	2c00      	cmp	r4, #0
10000ae4:	db00      	blt.n	10000ae8 <alarm_pool_irq_handler+0x260>
10000ae6:	e6f8      	b.n	100008da <alarm_pool_irq_handler+0x52>
10000ae8:	bf40      	sev
10000aea:	b003      	add	sp, #12
10000aec:	bcf0      	pop	{r4, r5, r6, r7}
10000aee:	46bb      	mov	fp, r7
10000af0:	46b2      	mov	sl, r6
10000af2:	46a9      	mov	r9, r5
10000af4:	46a0      	mov	r8, r4
10000af6:	bdf0      	pop	{r4, r5, r6, r7, pc}
10000af8:	689a      	ldr	r2, [r3, #8]
10000afa:	4542      	cmp	r2, r8
10000afc:	d9ac      	bls.n	10000a58 <alarm_pool_irq_handler+0x1d0>
10000afe:	e7b7      	b.n	10000a70 <alarm_pool_irq_handler+0x1e8>
10000b00:	1c63      	adds	r3, r4, #1
10000b02:	d000      	beq.n	10000b06 <alarm_pool_irq_handler+0x27e>
10000b04:	e6f4      	b.n	100008f0 <alarm_pool_irq_handler+0x68>
10000b06:	e6fe      	b.n	10000906 <alarm_pool_irq_handler+0x7e>
10000b08:	0020      	movs	r0, r4
10000b0a:	6923      	ldr	r3, [r4, #16]
10000b0c:	4798      	blx	r3
10000b0e:	2800      	cmp	r0, #0
10000b10:	d125      	bne.n	10000b5e <alarm_pool_irq_handler+0x2d6>
10000b12:	4653      	mov	r3, sl
10000b14:	4642      	mov	r2, r8
10000b16:	881b      	ldrh	r3, [r3, #0]
10000b18:	8113      	strh	r3, [r2, #8]
10000b1a:	6912      	ldr	r2, [r2, #16]
10000b1c:	f3ef 8310 	mrs	r3, PRIMASK
10000b20:	b672      	cpsid	i
10000b22:	6811      	ldr	r1, [r2, #0]
10000b24:	2900      	cmp	r1, #0
10000b26:	d0fc      	beq.n	10000b22 <alarm_pool_irq_handler+0x29a>
10000b28:	f3bf 8f5f 	dmb	sy
10000b2c:	4642      	mov	r2, r8
10000b2e:	4651      	mov	r1, sl
10000b30:	8852      	ldrh	r2, [r2, #2]
10000b32:	800a      	strh	r2, [r1, #0]
10000b34:	4642      	mov	r2, r8
10000b36:	4649      	mov	r1, r9
10000b38:	8051      	strh	r1, [r2, #2]
10000b3a:	6912      	ldr	r2, [r2, #16]
10000b3c:	f3bf 8f5f 	dmb	sy
10000b40:	2100      	movs	r1, #0
10000b42:	6011      	str	r1, [r2, #0]
10000b44:	f383 8810 	msr	PRIMASK, r3
10000b48:	e6b6      	b.n	100008b8 <alarm_pool_irq_handler+0x30>
10000b4a:	4286      	cmp	r6, r0
10000b4c:	d800      	bhi.n	10000b50 <alarm_pool_irq_handler+0x2c8>
10000b4e:	e6fb      	b.n	10000948 <alarm_pool_irq_handler+0xc0>
10000b50:	e6b2      	b.n	100008b8 <alarm_pool_irq_handler+0x30>
10000b52:	480b      	ldr	r0, [pc, #44]	@ (10000b80 <alarm_pool_irq_handler+0x2f8>)
10000b54:	f000 fa2c 	bl	10000fb0 <timer_time_us_64>
10000b58:	1900      	adds	r0, r0, r4
10000b5a:	4169      	adcs	r1, r5
10000b5c:	e715      	b.n	1000098a <alarm_pool_irq_handler+0x102>
10000b5e:	6865      	ldr	r5, [r4, #4]
10000b60:	6824      	ldr	r4, [r4, #0]
10000b62:	e707      	b.n	10000974 <alarm_pool_irq_handler+0xec>
10000b64:	4285      	cmp	r5, r0
10000b66:	d800      	bhi.n	10000b6a <alarm_pool_irq_handler+0x2e2>
10000b68:	e6d5      	b.n	10000916 <alarm_pool_irq_handler+0x8e>
10000b6a:	e7bd      	b.n	10000ae8 <alarm_pool_irq_handler+0x260>
10000b6c:	4287      	cmp	r7, r0
10000b6e:	d800      	bhi.n	10000b72 <alarm_pool_irq_handler+0x2ea>
10000b70:	e728      	b.n	100009c4 <alarm_pool_irq_handler+0x13c>
10000b72:	e737      	b.n	100009e4 <alarm_pool_irq_handler+0x15c>
10000b74:	200004b8 	.word	0x200004b8
10000b78:	4005703c 	.word	0x4005703c
10000b7c:	10000889 	.word	0x10000889
10000b80:	40054000 	.word	0x40054000

10000b84 <runtime_init_default_alarm_pool>:
10000b84:	b570      	push	{r4, r5, r6, lr}
10000b86:	4c2e      	ldr	r4, [pc, #184]	@ (10000c40 <runtime_init_default_alarm_pool+0xbc>)
10000b88:	6925      	ldr	r5, [r4, #16]
10000b8a:	2d00      	cmp	r5, #0
10000b8c:	d004      	beq.n	10000b98 <runtime_init_default_alarm_pool+0x14>
10000b8e:	210a      	movs	r1, #10
10000b90:	482c      	ldr	r0, [pc, #176]	@ (10000c44 <runtime_init_default_alarm_pool+0xc0>)
10000b92:	f7ff fe31 	bl	100007f8 <lock_init>
10000b96:	bd70      	pop	{r4, r5, r6, pc}
10000b98:	4e2b      	ldr	r6, [pc, #172]	@ (10000c48 <runtime_init_default_alarm_pool+0xc4>)
10000b9a:	2103      	movs	r1, #3
10000b9c:	0030      	movs	r0, r6
10000b9e:	f000 f9fd 	bl	10000f9c <timer_hardware_alarm_claim>
10000ba2:	60e6      	str	r6, [r4, #12]
10000ba4:	f7ff fdc0 	bl	10000728 <next_striped_spin_lock_num>
10000ba8:	4b28      	ldr	r3, [pc, #160]	@ (10000c4c <runtime_init_default_alarm_pool+0xc8>)
10000baa:	2203      	movs	r2, #3
10000bac:	469c      	mov	ip, r3
10000bae:	23d0      	movs	r3, #208	@ 0xd0
10000bb0:	7022      	strb	r2, [r4, #0]
10000bb2:	061b      	lsls	r3, r3, #24
10000bb4:	681b      	ldr	r3, [r3, #0]
10000bb6:	2101      	movs	r1, #1
10000bb8:	7063      	strb	r3, [r4, #1]
10000bba:	4b25      	ldr	r3, [pc, #148]	@ (10000c50 <runtime_init_default_alarm_pool+0xcc>)
10000bbc:	4460      	add	r0, ip
10000bbe:	60a3      	str	r3, [r4, #8]
10000bc0:	230f      	movs	r3, #15
10000bc2:	0080      	lsls	r0, r0, #2
10000bc4:	6120      	str	r0, [r4, #16]
10000bc6:	2002      	movs	r0, #2
10000bc8:	8063      	strh	r3, [r4, #2]
10000bca:	6963      	ldr	r3, [r4, #20]
10000bcc:	4249      	negs	r1, r1
10000bce:	80a1      	strh	r1, [r4, #4]
10000bd0:	8019      	strh	r1, [r3, #0]
10000bd2:	3102      	adds	r1, #2
10000bd4:	8619      	strh	r1, [r3, #48]	@ 0x30
10000bd6:	3147      	adds	r1, #71	@ 0x47
10000bd8:	831d      	strh	r5, [r3, #24]
10000bda:	5258      	strh	r0, [r3, r1]
10000bdc:	3118      	adds	r1, #24
10000bde:	525a      	strh	r2, [r3, r1]
10000be0:	3275      	adds	r2, #117	@ 0x75
10000be2:	395c      	subs	r1, #92	@ 0x5c
10000be4:	5299      	strh	r1, [r3, r2]
10000be6:	3218      	adds	r2, #24
10000be8:	3101      	adds	r1, #1
10000bea:	5299      	strh	r1, [r3, r2]
10000bec:	3218      	adds	r2, #24
10000bee:	3101      	adds	r1, #1
10000bf0:	5299      	strh	r1, [r3, r2]
10000bf2:	3218      	adds	r2, #24
10000bf4:	3101      	adds	r1, #1
10000bf6:	5299      	strh	r1, [r3, r2]
10000bf8:	3508      	adds	r5, #8
10000bfa:	3218      	adds	r2, #24
10000bfc:	529d      	strh	r5, [r3, r2]
10000bfe:	3102      	adds	r1, #2
10000c00:	3218      	adds	r2, #24
10000c02:	5299      	strh	r1, [r3, r2]
10000c04:	3218      	adds	r2, #24
10000c06:	3101      	adds	r1, #1
10000c08:	5299      	strh	r1, [r3, r2]
10000c0a:	3218      	adds	r2, #24
10000c0c:	3101      	adds	r1, #1
10000c0e:	5299      	strh	r1, [r3, r2]
10000c10:	3218      	adds	r2, #24
10000c12:	3101      	adds	r1, #1
10000c14:	5299      	strh	r1, [r3, r2]
10000c16:	3218      	adds	r2, #24
10000c18:	3101      	adds	r1, #1
10000c1a:	5299      	strh	r1, [r3, r2]
10000c1c:	3218      	adds	r2, #24
10000c1e:	3101      	adds	r1, #1
10000c20:	5299      	strh	r1, [r3, r2]
10000c22:	4b0c      	ldr	r3, [pc, #48]	@ (10000c54 <runtime_init_default_alarm_pool+0xd0>)
10000c24:	490c      	ldr	r1, [pc, #48]	@ (10000c58 <runtime_init_default_alarm_pool+0xd4>)
10000c26:	60dc      	str	r4, [r3, #12]
10000c28:	3001      	adds	r0, #1
10000c2a:	6235      	str	r5, [r6, #32]
10000c2c:	f7ff fdba 	bl	100007a4 <irq_set_exclusive_handler>
10000c30:	2101      	movs	r1, #1
10000c32:	2003      	movs	r0, #3
10000c34:	f7ff fda4 	bl	10000780 <irq_set_enabled>
10000c38:	4b08      	ldr	r3, [pc, #32]	@ (10000c5c <runtime_init_default_alarm_pool+0xd8>)
10000c3a:	601d      	str	r5, [r3, #0]
10000c3c:	e7a7      	b.n	10000b8e <runtime_init_default_alarm_pool+0xa>
10000c3e:	46c0      	nop			@ (mov r8, r8)
10000c40:	2000019c 	.word	0x2000019c
10000c44:	200005cc 	.word	0x200005cc
10000c48:	40054000 	.word	0x40054000
10000c4c:	34000040 	.word	0x34000040
10000c50:	0010ffff 	.word	0x0010ffff
10000c54:	200004b8 	.word	0x200004b8
10000c58:	10000889 	.word	0x10000889
10000c5c:	40056038 	.word	0x40056038

10000c60 <alarm_pool_add_alarm_at_force_in_context>:
10000c60:	b570      	push	{r4, r5, r6, lr}
10000c62:	0001      	movs	r1, r0
10000c64:	6904      	ldr	r4, [r0, #16]
10000c66:	f3ef 8c10 	mrs	ip, PRIMASK
10000c6a:	b672      	cpsid	i
10000c6c:	6820      	ldr	r0, [r4, #0]
10000c6e:	2800      	cmp	r0, #0
10000c70:	d0fc      	beq.n	10000c6c <alarm_pool_add_alarm_at_force_in_context+0xc>
10000c72:	f3bf 8f5f 	dmb	sy
10000c76:	2002      	movs	r0, #2
10000c78:	5e0d      	ldrsh	r5, [r1, r0]
10000c7a:	694c      	ldr	r4, [r1, #20]
10000c7c:	0068      	lsls	r0, r5, #1
10000c7e:	1940      	adds	r0, r0, r5
10000c80:	00c0      	lsls	r0, r0, #3
10000c82:	1824      	adds	r4, r4, r0
10000c84:	2d00      	cmp	r5, #0
10000c86:	db37      	blt.n	10000cf8 <alarm_pool_add_alarm_at_force_in_context+0x98>
10000c88:	8820      	ldrh	r0, [r4, #0]
10000c8a:	8048      	strh	r0, [r1, #2]
10000c8c:	6908      	ldr	r0, [r1, #16]
10000c8e:	f3bf 8f5f 	dmb	sy
10000c92:	2600      	movs	r6, #0
10000c94:	6006      	str	r6, [r0, #0]
10000c96:	f38c 8810 	msr	PRIMASK, ip
10000c9a:	60e3      	str	r3, [r4, #12]
10000c9c:	8863      	ldrh	r3, [r4, #2]
10000c9e:	9804      	ldr	r0, [sp, #16]
10000ca0:	3301      	adds	r3, #1
10000ca2:	6120      	str	r0, [r4, #16]
10000ca4:	045b      	lsls	r3, r3, #17
10000ca6:	9805      	ldr	r0, [sp, #20]
10000ca8:	0c5b      	lsrs	r3, r3, #17
10000caa:	60a2      	str	r2, [r4, #8]
10000cac:	6160      	str	r0, [r4, #20]
10000cae:	1c1a      	adds	r2, r3, #0
10000cb0:	2b00      	cmp	r3, #0
10000cb2:	d01f      	beq.n	10000cf4 <alarm_pool_add_alarm_at_force_in_context+0x94>
10000cb4:	b293      	uxth	r3, r2
10000cb6:	0428      	lsls	r0, r5, #16
10000cb8:	8062      	strh	r2, [r4, #2]
10000cba:	4318      	orrs	r0, r3
10000cbc:	690a      	ldr	r2, [r1, #16]
10000cbe:	f3ef 8c10 	mrs	ip, PRIMASK
10000cc2:	b672      	cpsid	i
10000cc4:	6813      	ldr	r3, [r2, #0]
10000cc6:	2b00      	cmp	r3, #0
10000cc8:	d0fc      	beq.n	10000cc4 <alarm_pool_add_alarm_at_force_in_context+0x64>
10000cca:	f3bf 8f5f 	dmb	sy
10000cce:	888b      	ldrh	r3, [r1, #4]
10000cd0:	8023      	strh	r3, [r4, #0]
10000cd2:	808d      	strh	r5, [r1, #4]
10000cd4:	690b      	ldr	r3, [r1, #16]
10000cd6:	f3bf 8f5f 	dmb	sy
10000cda:	2200      	movs	r2, #0
10000cdc:	601a      	str	r2, [r3, #0]
10000cde:	f38c 8810 	msr	PRIMASK, ip
10000ce2:	780b      	ldrb	r3, [r1, #0]
10000ce4:	3201      	adds	r2, #1
10000ce6:	409a      	lsls	r2, r3
10000ce8:	68cb      	ldr	r3, [r1, #12]
10000cea:	4908      	ldr	r1, [pc, #32]	@ (10000d0c <alarm_pool_add_alarm_at_force_in_context+0xac>)
10000cec:	468c      	mov	ip, r1
10000cee:	4463      	add	r3, ip
10000cf0:	601a      	str	r2, [r3, #0]
10000cf2:	bd70      	pop	{r4, r5, r6, pc}
10000cf4:	2201      	movs	r2, #1
10000cf6:	e7dd      	b.n	10000cb4 <alarm_pool_add_alarm_at_force_in_context+0x54>
10000cf8:	690b      	ldr	r3, [r1, #16]
10000cfa:	f3bf 8f5f 	dmb	sy
10000cfe:	2200      	movs	r2, #0
10000d00:	601a      	str	r2, [r3, #0]
10000d02:	f38c 8810 	msr	PRIMASK, ip
10000d06:	2001      	movs	r0, #1
10000d08:	4240      	negs	r0, r0
10000d0a:	e7f2      	b.n	10000cf2 <alarm_pool_add_alarm_at_force_in_context+0x92>
10000d0c:	0000203c 	.word	0x0000203c

10000d10 <alarm_pool_cancel_alarm>:
10000d10:	b510      	push	{r4, lr}
10000d12:	8943      	ldrh	r3, [r0, #10]
10000d14:	140a      	asrs	r2, r1, #16
10000d16:	4293      	cmp	r3, r2
10000d18:	dd1a      	ble.n	10000d50 <alarm_pool_cancel_alarm+0x40>
10000d1a:	0053      	lsls	r3, r2, #1
10000d1c:	189b      	adds	r3, r3, r2
10000d1e:	6942      	ldr	r2, [r0, #20]
10000d20:	00db      	lsls	r3, r3, #3
10000d22:	18d3      	adds	r3, r2, r3
10000d24:	6904      	ldr	r4, [r0, #16]
10000d26:	f3ef 8c10 	mrs	ip, PRIMASK
10000d2a:	b672      	cpsid	i
10000d2c:	6822      	ldr	r2, [r4, #0]
10000d2e:	2a00      	cmp	r2, #0
10000d30:	d0fc      	beq.n	10000d2c <alarm_pool_cancel_alarm+0x1c>
10000d32:	f3bf 8f5f 	dmb	sy
10000d36:	885a      	ldrh	r2, [r3, #2]
10000d38:	0409      	lsls	r1, r1, #16
10000d3a:	b294      	uxth	r4, r2
10000d3c:	0c09      	lsrs	r1, r1, #16
10000d3e:	428a      	cmp	r2, r1
10000d40:	d008      	beq.n	10000d54 <alarm_pool_cancel_alarm+0x44>
10000d42:	6903      	ldr	r3, [r0, #16]
10000d44:	f3bf 8f5f 	dmb	sy
10000d48:	2200      	movs	r2, #0
10000d4a:	601a      	str	r2, [r3, #0]
10000d4c:	f38c 8810 	msr	PRIMASK, ip
10000d50:	2000      	movs	r0, #0
10000d52:	bd10      	pop	{r4, pc}
10000d54:	2280      	movs	r2, #128	@ 0x80
10000d56:	0212      	lsls	r2, r2, #8
10000d58:	4314      	orrs	r4, r2
10000d5a:	805c      	strh	r4, [r3, #2]
10000d5c:	2301      	movs	r3, #1
10000d5e:	6902      	ldr	r2, [r0, #16]
10000d60:	7183      	strb	r3, [r0, #6]
10000d62:	f3bf 8f5f 	dmb	sy
10000d66:	2100      	movs	r1, #0
10000d68:	6011      	str	r1, [r2, #0]
10000d6a:	f38c 8810 	msr	PRIMASK, ip
10000d6e:	4904      	ldr	r1, [pc, #16]	@ (10000d80 <alarm_pool_cancel_alarm+0x70>)
10000d70:	7802      	ldrb	r2, [r0, #0]
10000d72:	468c      	mov	ip, r1
10000d74:	4093      	lsls	r3, r2
10000d76:	68c2      	ldr	r2, [r0, #12]
10000d78:	2001      	movs	r0, #1
10000d7a:	4462      	add	r2, ip
10000d7c:	6013      	str	r3, [r2, #0]
10000d7e:	e7e8      	b.n	10000d52 <alarm_pool_cancel_alarm+0x42>
10000d80:	0000203c 	.word	0x0000203c

10000d84 <sleep_until>:
10000d84:	b5f0      	push	{r4, r5, r6, r7, lr}
10000d86:	0004      	movs	r4, r0
10000d88:	000d      	movs	r5, r1
10000d8a:	2606      	movs	r6, #6
10000d8c:	4276      	negs	r6, r6
10000d8e:	17f7      	asrs	r7, r6, #31
10000d90:	46c6      	mov	lr, r8
10000d92:	1936      	adds	r6, r6, r4
10000d94:	416f      	adcs	r7, r5
10000d96:	b500      	push	{lr}
10000d98:	b082      	sub	sp, #8
10000d9a:	428f      	cmp	r7, r1
10000d9c:	d814      	bhi.n	10000dc8 <sleep_until+0x44>
10000d9e:	d011      	beq.n	10000dc4 <sleep_until+0x40>
10000da0:	f000 f90e 	bl	10000fc0 <time_us_64>
10000da4:	0032      	movs	r2, r6
10000da6:	003b      	movs	r3, r7
10000da8:	1a12      	subs	r2, r2, r0
10000daa:	418b      	sbcs	r3, r1
10000dac:	2b00      	cmp	r3, #0
10000dae:	dc17      	bgt.n	10000de0 <sleep_until+0x5c>
10000db0:	2b00      	cmp	r3, #0
10000db2:	d047      	beq.n	10000e44 <sleep_until+0xc0>
10000db4:	0020      	movs	r0, r4
10000db6:	0029      	movs	r1, r5
10000db8:	f000 f90c 	bl	10000fd4 <busy_wait_until>
10000dbc:	b002      	add	sp, #8
10000dbe:	bc80      	pop	{r7}
10000dc0:	46b8      	mov	r8, r7
10000dc2:	bdf0      	pop	{r4, r5, r6, r7, pc}
10000dc4:	4286      	cmp	r6, r0
10000dc6:	d9eb      	bls.n	10000da0 <sleep_until+0x1c>
10000dc8:	2200      	movs	r2, #0
10000dca:	2300      	movs	r3, #0
10000dcc:	0016      	movs	r6, r2
10000dce:	001f      	movs	r7, r3
10000dd0:	f000 f8f6 	bl	10000fc0 <time_us_64>
10000dd4:	0032      	movs	r2, r6
10000dd6:	003b      	movs	r3, r7
10000dd8:	1a12      	subs	r2, r2, r0
10000dda:	418b      	sbcs	r3, r1
10000ddc:	2b00      	cmp	r3, #0
10000dde:	dde7      	ble.n	10000db0 <sleep_until+0x2c>
10000de0:	f000 f8ee 	bl	10000fc0 <time_us_64>
10000de4:	0032      	movs	r2, r6
10000de6:	003b      	movs	r3, r7
10000de8:	1a12      	subs	r2, r2, r0
10000dea:	418b      	sbcs	r3, r1
10000dec:	2b00      	cmp	r3, #0
10000dee:	db0a      	blt.n	10000e06 <sleep_until+0x82>
10000df0:	2300      	movs	r3, #0
10000df2:	9301      	str	r3, [sp, #4]
10000df4:	4b15      	ldr	r3, [pc, #84]	@ (10000e4c <sleep_until+0xc8>)
10000df6:	0032      	movs	r2, r6
10000df8:	9300      	str	r3, [sp, #0]
10000dfa:	4815      	ldr	r0, [pc, #84]	@ (10000e50 <sleep_until+0xcc>)
10000dfc:	003b      	movs	r3, r7
10000dfe:	f7ff ff2f 	bl	10000c60 <alarm_pool_add_alarm_at_force_in_context>
10000e02:	2800      	cmp	r0, #0
10000e04:	dbd6      	blt.n	10000db4 <sleep_until+0x30>
10000e06:	2300      	movs	r3, #0
10000e08:	469c      	mov	ip, r3
10000e0a:	46b0      	mov	r8, r6
10000e0c:	4a11      	ldr	r2, [pc, #68]	@ (10000e54 <sleep_until+0xd0>)
10000e0e:	4e12      	ldr	r6, [pc, #72]	@ (10000e58 <sleep_until+0xd4>)
10000e10:	6a73      	ldr	r3, [r6, #36]	@ 0x24
10000e12:	429f      	cmp	r7, r3
10000e14:	d804      	bhi.n	10000e20 <sleep_until+0x9c>
10000e16:	6ab1      	ldr	r1, [r6, #40]	@ 0x28
10000e18:	4588      	cmp	r8, r1
10000e1a:	d9cb      	bls.n	10000db4 <sleep_until+0x30>
10000e1c:	429f      	cmp	r7, r3
10000e1e:	d1c9      	bne.n	10000db4 <sleep_until+0x30>
10000e20:	6811      	ldr	r1, [r2, #0]
10000e22:	f3ef 8010 	mrs	r0, PRIMASK
10000e26:	b672      	cpsid	i
10000e28:	680b      	ldr	r3, [r1, #0]
10000e2a:	2b00      	cmp	r3, #0
10000e2c:	d0fc      	beq.n	10000e28 <sleep_until+0xa4>
10000e2e:	f3bf 8f5f 	dmb	sy
10000e32:	6813      	ldr	r3, [r2, #0]
10000e34:	f3bf 8f5f 	dmb	sy
10000e38:	4661      	mov	r1, ip
10000e3a:	6019      	str	r1, [r3, #0]
10000e3c:	f380 8810 	msr	PRIMASK, r0
10000e40:	bf20      	wfe
10000e42:	e7e5      	b.n	10000e10 <sleep_until+0x8c>
10000e44:	2a00      	cmp	r2, #0
10000e46:	d0b5      	beq.n	10000db4 <sleep_until+0x30>
10000e48:	e7ca      	b.n	10000de0 <sleep_until+0x5c>
10000e4a:	46c0      	nop			@ (mov r8, r8)
10000e4c:	10000859 	.word	0x10000859
10000e50:	2000019c 	.word	0x2000019c
10000e54:	200005cc 	.word	0x200005cc
10000e58:	40054000 	.word	0x40054000

10000e5c <sleep_us>:
10000e5c:	b570      	push	{r4, r5, r6, lr}
10000e5e:	0004      	movs	r4, r0
10000e60:	000d      	movs	r5, r1
10000e62:	f000 f8ad 	bl	10000fc0 <time_us_64>
10000e66:	2380      	movs	r3, #128	@ 0x80
10000e68:	1900      	adds	r0, r0, r4
10000e6a:	4169      	adcs	r1, r5
10000e6c:	061b      	lsls	r3, r3, #24
10000e6e:	4299      	cmp	r1, r3
10000e70:	d302      	bcc.n	10000e78 <sleep_us+0x1c>
10000e72:	2001      	movs	r0, #1
10000e74:	4902      	ldr	r1, [pc, #8]	@ (10000e80 <sleep_us+0x24>)
10000e76:	4240      	negs	r0, r0
10000e78:	f7ff ff84 	bl	10000d84 <sleep_until>
10000e7c:	bd70      	pop	{r4, r5, r6, pc}
10000e7e:	46c0      	nop			@ (mov r8, r8)
10000e80:	7fffffff 	.word	0x7fffffff

10000e84 <sleep_ms>:
10000e84:	b570      	push	{r4, r5, r6, lr}
10000e86:	0006      	movs	r6, r0
10000e88:	f000 f89a 	bl	10000fc0 <time_us_64>
10000e8c:	22fa      	movs	r2, #250	@ 0xfa
10000e8e:	0004      	movs	r4, r0
10000e90:	000d      	movs	r5, r1
10000e92:	2300      	movs	r3, #0
10000e94:	0030      	movs	r0, r6
10000e96:	2100      	movs	r1, #0
10000e98:	0092      	lsls	r2, r2, #2
10000e9a:	f000 feb9 	bl	10001c10 <__wrap___aeabi_lmul>
10000e9e:	2380      	movs	r3, #128	@ 0x80
10000ea0:	1900      	adds	r0, r0, r4
10000ea2:	4169      	adcs	r1, r5
10000ea4:	061b      	lsls	r3, r3, #24
10000ea6:	4299      	cmp	r1, r3
10000ea8:	d302      	bcc.n	10000eb0 <sleep_ms+0x2c>
10000eaa:	2001      	movs	r0, #1
10000eac:	4902      	ldr	r1, [pc, #8]	@ (10000eb8 <sleep_ms+0x34>)
10000eae:	4240      	negs	r0, r0
10000eb0:	f7ff ff68 	bl	10000d84 <sleep_until>
10000eb4:	bd70      	pop	{r4, r5, r6, pc}
10000eb6:	46c0      	nop			@ (mov r8, r8)
10000eb8:	7fffffff 	.word	0x7fffffff

10000ebc <best_effort_wfe_or_timeout>:
10000ebc:	b5f0      	push	{r4, r5, r6, r7, lr}
10000ebe:	46ce      	mov	lr, r9
10000ec0:	4647      	mov	r7, r8
10000ec2:	b580      	push	{r7, lr}
10000ec4:	0004      	movs	r4, r0
10000ec6:	000d      	movs	r5, r1
10000ec8:	b083      	sub	sp, #12
10000eca:	f3ef 8705 	mrs	r7, IPSR
10000ece:	4688      	mov	r8, r1
10000ed0:	2f00      	cmp	r7, #0
10000ed2:	d13e      	bne.n	10000f52 <best_effort_wfe_or_timeout+0x96>
10000ed4:	4e2e      	ldr	r6, [pc, #184]	@ (10000f90 <best_effort_wfe_or_timeout+0xd4>)
10000ed6:	46a1      	mov	r9, r4
10000ed8:	7833      	ldrb	r3, [r6, #0]
10000eda:	68f0      	ldr	r0, [r6, #12]
10000edc:	3304      	adds	r3, #4
10000ede:	009b      	lsls	r3, r3, #2
10000ee0:	6a81      	ldr	r1, [r0, #40]	@ 0x28
10000ee2:	581b      	ldr	r3, [r3, r0]
10000ee4:	1a60      	subs	r0, r4, r1
10000ee6:	1a5b      	subs	r3, r3, r1
10000ee8:	4298      	cmp	r0, r3
10000eea:	d30e      	bcc.n	10000f0a <best_effort_wfe_or_timeout+0x4e>
10000eec:	bf20      	wfe
10000eee:	4929      	ldr	r1, [pc, #164]	@ (10000f94 <best_effort_wfe_or_timeout+0xd8>)
10000ef0:	2000      	movs	r0, #0
10000ef2:	6a4b      	ldr	r3, [r1, #36]	@ 0x24
10000ef4:	42ab      	cmp	r3, r5
10000ef6:	d303      	bcc.n	10000f00 <best_effort_wfe_or_timeout+0x44>
10000ef8:	6a8a      	ldr	r2, [r1, #40]	@ 0x28
10000efa:	3001      	adds	r0, #1
10000efc:	4294      	cmp	r4, r2
10000efe:	d831      	bhi.n	10000f64 <best_effort_wfe_or_timeout+0xa8>
10000f00:	b003      	add	sp, #12
10000f02:	bcc0      	pop	{r6, r7}
10000f04:	46b9      	mov	r9, r7
10000f06:	46b0      	mov	r8, r6
10000f08:	bdf0      	pop	{r4, r5, r6, r7, pc}
10000f0a:	f000 f859 	bl	10000fc0 <time_us_64>
10000f0e:	0022      	movs	r2, r4
10000f10:	002b      	movs	r3, r5
10000f12:	1a12      	subs	r2, r2, r0
10000f14:	418b      	sbcs	r3, r1
10000f16:	2b00      	cmp	r3, #0
10000f18:	db2f      	blt.n	10000f7a <best_effort_wfe_or_timeout+0xbe>
10000f1a:	4b1f      	ldr	r3, [pc, #124]	@ (10000f98 <best_effort_wfe_or_timeout+0xdc>)
10000f1c:	0022      	movs	r2, r4
10000f1e:	9300      	str	r3, [sp, #0]
10000f20:	0030      	movs	r0, r6
10000f22:	002b      	movs	r3, r5
10000f24:	9701      	str	r7, [sp, #4]
10000f26:	f7ff fe9b 	bl	10000c60 <alarm_pool_add_alarm_at_force_in_context>
10000f2a:	1e01      	subs	r1, r0, #0
10000f2c:	dd25      	ble.n	10000f7a <best_effort_wfe_or_timeout+0xbe>
10000f2e:	4b19      	ldr	r3, [pc, #100]	@ (10000f94 <best_effort_wfe_or_timeout+0xd8>)
10000f30:	6a5a      	ldr	r2, [r3, #36]	@ 0x24
10000f32:	42aa      	cmp	r2, r5
10000f34:	d21b      	bcs.n	10000f6e <best_effort_wfe_or_timeout+0xb2>
10000f36:	bf20      	wfe
10000f38:	0030      	movs	r0, r6
10000f3a:	f7ff fee9 	bl	10000d10 <alarm_pool_cancel_alarm>
10000f3e:	4a15      	ldr	r2, [pc, #84]	@ (10000f94 <best_effort_wfe_or_timeout+0xd8>)
10000f40:	2000      	movs	r0, #0
10000f42:	6a53      	ldr	r3, [r2, #36]	@ 0x24
10000f44:	4543      	cmp	r3, r8
10000f46:	d3db      	bcc.n	10000f00 <best_effort_wfe_or_timeout+0x44>
10000f48:	6a92      	ldr	r2, [r2, #40]	@ 0x28
10000f4a:	3001      	adds	r0, #1
10000f4c:	4591      	cmp	r9, r2
10000f4e:	d9d7      	bls.n	10000f00 <best_effort_wfe_or_timeout+0x44>
10000f50:	e008      	b.n	10000f64 <best_effort_wfe_or_timeout+0xa8>
10000f52:	4910      	ldr	r1, [pc, #64]	@ (10000f94 <best_effort_wfe_or_timeout+0xd8>)
10000f54:	2000      	movs	r0, #0
10000f56:	6a4b      	ldr	r3, [r1, #36]	@ 0x24
10000f58:	42ab      	cmp	r3, r5
10000f5a:	d3d1      	bcc.n	10000f00 <best_effort_wfe_or_timeout+0x44>
10000f5c:	6a8a      	ldr	r2, [r1, #40]	@ 0x28
10000f5e:	3001      	adds	r0, #1
10000f60:	42a2      	cmp	r2, r4
10000f62:	d2cd      	bcs.n	10000f00 <best_effort_wfe_or_timeout+0x44>
10000f64:	1b5b      	subs	r3, r3, r5
10000f66:	1e5a      	subs	r2, r3, #1
10000f68:	4193      	sbcs	r3, r2
10000f6a:	b2d8      	uxtb	r0, r3
10000f6c:	e7c8      	b.n	10000f00 <best_effort_wfe_or_timeout+0x44>
10000f6e:	6a9b      	ldr	r3, [r3, #40]	@ 0x28
10000f70:	429c      	cmp	r4, r3
10000f72:	d9e1      	bls.n	10000f38 <best_effort_wfe_or_timeout+0x7c>
10000f74:	42aa      	cmp	r2, r5
10000f76:	d1df      	bne.n	10000f38 <best_effort_wfe_or_timeout+0x7c>
10000f78:	e7dd      	b.n	10000f36 <best_effort_wfe_or_timeout+0x7a>
10000f7a:	4a06      	ldr	r2, [pc, #24]	@ (10000f94 <best_effort_wfe_or_timeout+0xd8>)
10000f7c:	2000      	movs	r0, #0
10000f7e:	6a53      	ldr	r3, [r2, #36]	@ 0x24
10000f80:	4543      	cmp	r3, r8
10000f82:	d3bd      	bcc.n	10000f00 <best_effort_wfe_or_timeout+0x44>
10000f84:	6a92      	ldr	r2, [r2, #40]	@ 0x28
10000f86:	2001      	movs	r0, #1
10000f88:	4591      	cmp	r9, r2
10000f8a:	d9b9      	bls.n	10000f00 <best_effort_wfe_or_timeout+0x44>
10000f8c:	e7ea      	b.n	10000f64 <best_effort_wfe_or_timeout+0xa8>
10000f8e:	46c0      	nop			@ (mov r8, r8)
10000f90:	2000019c 	.word	0x2000019c
10000f94:	40054000 	.word	0x40054000
10000f98:	10000859 	.word	0x10000859

10000f9c <timer_hardware_alarm_claim>:
10000f9c:	b510      	push	{r4, lr}
10000f9e:	4a02      	ldr	r2, [pc, #8]	@ (10000fa8 <timer_hardware_alarm_claim+0xc>)
10000fa0:	4802      	ldr	r0, [pc, #8]	@ (10000fac <timer_hardware_alarm_claim+0x10>)
10000fa2:	f7ff fb9f 	bl	100006e4 <hw_claim_or_assert>
10000fa6:	bd10      	pop	{r4, pc}
10000fa8:	10003934 	.word	0x10003934
10000fac:	20000468 	.word	0x20000468

10000fb0 <timer_time_us_64>:
10000fb0:	0003      	movs	r3, r0
10000fb2:	6a41      	ldr	r1, [r0, #36]	@ 0x24
10000fb4:	000a      	movs	r2, r1
10000fb6:	6a98      	ldr	r0, [r3, #40]	@ 0x28
10000fb8:	6a59      	ldr	r1, [r3, #36]	@ 0x24
10000fba:	428a      	cmp	r2, r1
10000fbc:	d1fa      	bne.n	10000fb4 <timer_time_us_64+0x4>
10000fbe:	4770      	bx	lr

10000fc0 <time_us_64>:
10000fc0:	4b03      	ldr	r3, [pc, #12]	@ (10000fd0 <time_us_64+0x10>)
10000fc2:	6a59      	ldr	r1, [r3, #36]	@ 0x24
10000fc4:	000a      	movs	r2, r1
10000fc6:	6a98      	ldr	r0, [r3, #40]	@ 0x28
10000fc8:	6a59      	ldr	r1, [r3, #36]	@ 0x24
10000fca:	4291      	cmp	r1, r2
10000fcc:	d1fa      	bne.n	10000fc4 <time_us_64+0x4>
10000fce:	4770      	bx	lr
10000fd0:	40054000 	.word	0x40054000

10000fd4 <busy_wait_until>:
10000fd4:	4a06      	ldr	r2, [pc, #24]	@ (10000ff0 <busy_wait_until+0x1c>)
10000fd6:	6a53      	ldr	r3, [r2, #36]	@ 0x24
10000fd8:	4299      	cmp	r1, r3
10000fda:	d8fc      	bhi.n	10000fd6 <busy_wait_until+0x2>
10000fdc:	d107      	bne.n	10000fee <busy_wait_until+0x1a>
10000fde:	4b04      	ldr	r3, [pc, #16]	@ (10000ff0 <busy_wait_until+0x1c>)
10000fe0:	e002      	b.n	10000fe8 <busy_wait_until+0x14>
10000fe2:	6a5a      	ldr	r2, [r3, #36]	@ 0x24
10000fe4:	4291      	cmp	r1, r2
10000fe6:	d102      	bne.n	10000fee <busy_wait_until+0x1a>
10000fe8:	6a9a      	ldr	r2, [r3, #40]	@ 0x28
10000fea:	4282      	cmp	r2, r0
10000fec:	d3f9      	bcc.n	10000fe2 <busy_wait_until+0xe>
10000fee:	4770      	bx	lr
10000ff0:	40054000 	.word	0x40054000

10000ff4 <clock_configure_int_divider>:
10000ff4:	b5f8      	push	{r3, r4, r5, r6, r7, lr}
10000ff6:	46de      	mov	lr, fp
10000ff8:	464e      	mov	r6, r9
10000ffa:	4657      	mov	r7, sl
10000ffc:	4645      	mov	r5, r8
10000ffe:	b5e0      	push	{r5, r6, r7, lr}
10001000:	468b      	mov	fp, r1
10001002:	0005      	movs	r5, r0
10001004:	990a      	ldr	r1, [sp, #40]	@ 0x28
10001006:	0018      	movs	r0, r3
10001008:	0016      	movs	r6, r2
1000100a:	f000 fa8f 	bl	1000152c <__wrap___aeabi_uidiv>
1000100e:	9b0a      	ldr	r3, [sp, #40]	@ 0x28
10001010:	006c      	lsls	r4, r5, #1
10001012:	021f      	lsls	r7, r3, #8
10001014:	4b32      	ldr	r3, [pc, #200]	@ (100010e0 <clock_configure_int_divider+0xec>)
10001016:	1964      	adds	r4, r4, r5
10001018:	469c      	mov	ip, r3
1000101a:	00a4      	lsls	r4, r4, #2
1000101c:	4464      	add	r4, ip
1000101e:	6863      	ldr	r3, [r4, #4]
10001020:	4681      	mov	r9, r0
10001022:	429f      	cmp	r7, r3
10001024:	d900      	bls.n	10001028 <clock_configure_int_divider+0x34>
10001026:	6067      	str	r7, [r4, #4]
10001028:	1f2b      	subs	r3, r5, #4
1000102a:	b2db      	uxtb	r3, r3
1000102c:	4698      	mov	r8, r3
1000102e:	2b01      	cmp	r3, #1
10001030:	d930      	bls.n	10001094 <clock_configure_int_divider+0xa0>
10001032:	23c0      	movs	r3, #192	@ 0xc0
10001034:	2280      	movs	r2, #128	@ 0x80
10001036:	019b      	lsls	r3, r3, #6
10001038:	18e3      	adds	r3, r4, r3
1000103a:	0112      	lsls	r2, r2, #4
1000103c:	601a      	str	r2, [r3, #0]
1000103e:	4b29      	ldr	r3, [pc, #164]	@ (100010e4 <clock_configure_int_divider+0xf0>)
10001040:	00ad      	lsls	r5, r5, #2
10001042:	5959      	ldr	r1, [r3, r5]
10001044:	469a      	mov	sl, r3
10001046:	2900      	cmp	r1, #0
10001048:	d11b      	bne.n	10001082 <clock_configure_int_divider+0x8e>
1000104a:	0173      	lsls	r3, r6, #5
1000104c:	26e0      	movs	r6, #224	@ 0xe0
1000104e:	6822      	ldr	r2, [r4, #0]
10001050:	4053      	eors	r3, r2
10001052:	401e      	ands	r6, r3
10001054:	2380      	movs	r3, #128	@ 0x80
10001056:	4642      	mov	r2, r8
10001058:	015b      	lsls	r3, r3, #5
1000105a:	18e3      	adds	r3, r4, r3
1000105c:	601e      	str	r6, [r3, #0]
1000105e:	2a01      	cmp	r2, #1
10001060:	d930      	bls.n	100010c4 <clock_configure_int_divider+0xd0>
10001062:	2380      	movs	r3, #128	@ 0x80
10001064:	2280      	movs	r2, #128	@ 0x80
10001066:	019b      	lsls	r3, r3, #6
10001068:	18e3      	adds	r3, r4, r3
1000106a:	0112      	lsls	r2, r2, #4
1000106c:	601a      	str	r2, [r3, #0]
1000106e:	4653      	mov	r3, sl
10001070:	464a      	mov	r2, r9
10001072:	6067      	str	r7, [r4, #4]
10001074:	515a      	str	r2, [r3, r5]
10001076:	bcf0      	pop	{r4, r5, r6, r7}
10001078:	46bb      	mov	fp, r7
1000107a:	46b2      	mov	sl, r6
1000107c:	46a9      	mov	r9, r5
1000107e:	46a0      	mov	r8, r4
10001080:	bdf8      	pop	{r3, r4, r5, r6, r7, pc}
10001082:	6958      	ldr	r0, [r3, #20]
10001084:	f000 fa52 	bl	1000152c <__wrap___aeabi_uidiv>
10001088:	3001      	adds	r0, #1
1000108a:	0043      	lsls	r3, r0, #1
1000108c:	181b      	adds	r3, r3, r0
1000108e:	3b03      	subs	r3, #3
10001090:	d2fd      	bcs.n	1000108e <clock_configure_int_divider+0x9a>
10001092:	e7da      	b.n	1000104a <clock_configure_int_divider+0x56>
10001094:	465b      	mov	r3, fp
10001096:	2b01      	cmp	r3, #1
10001098:	d1cb      	bne.n	10001032 <clock_configure_int_divider+0x3e>
1000109a:	23c0      	movs	r3, #192	@ 0xc0
1000109c:	2203      	movs	r2, #3
1000109e:	019b      	lsls	r3, r3, #6
100010a0:	18e3      	adds	r3, r4, r3
100010a2:	601a      	str	r2, [r3, #0]
100010a4:	3a02      	subs	r2, #2
100010a6:	68a3      	ldr	r3, [r4, #8]
100010a8:	421a      	tst	r2, r3
100010aa:	d0fc      	beq.n	100010a6 <clock_configure_int_divider+0xb2>
100010ac:	0173      	lsls	r3, r6, #5
100010ae:	26e0      	movs	r6, #224	@ 0xe0
100010b0:	6822      	ldr	r2, [r4, #0]
100010b2:	00ad      	lsls	r5, r5, #2
100010b4:	4053      	eors	r3, r2
100010b6:	401e      	ands	r6, r3
100010b8:	2380      	movs	r3, #128	@ 0x80
100010ba:	4a0a      	ldr	r2, [pc, #40]	@ (100010e4 <clock_configure_int_divider+0xf0>)
100010bc:	015b      	lsls	r3, r3, #5
100010be:	4692      	mov	sl, r2
100010c0:	18e3      	adds	r3, r4, r3
100010c2:	601e      	str	r6, [r3, #0]
100010c4:	465a      	mov	r2, fp
100010c6:	6821      	ldr	r1, [r4, #0]
100010c8:	4051      	eors	r1, r2
100010ca:	2203      	movs	r2, #3
100010cc:	400a      	ands	r2, r1
100010ce:	601a      	str	r2, [r3, #0]
100010d0:	2201      	movs	r2, #1
100010d2:	465b      	mov	r3, fp
100010d4:	409a      	lsls	r2, r3
100010d6:	68a3      	ldr	r3, [r4, #8]
100010d8:	421a      	tst	r2, r3
100010da:	d0fc      	beq.n	100010d6 <clock_configure_int_divider+0xe2>
100010dc:	e7c1      	b.n	10001062 <clock_configure_int_divider+0x6e>
100010de:	46c0      	nop			@ (mov r8, r8)
100010e0:	40008000 	.word	0x40008000
100010e4:	2000046c 	.word	0x2000046c

100010e8 <clock_configure_undivided>:
100010e8:	b5f0      	push	{r4, r5, r6, r7, lr}
100010ea:	4646      	mov	r6, r8
100010ec:	464f      	mov	r7, r9
100010ee:	46d6      	mov	lr, sl
100010f0:	b5c0      	push	{r6, r7, lr}
100010f2:	001f      	movs	r7, r3
100010f4:	4b34      	ldr	r3, [pc, #208]	@ (100011c8 <clock_configure_undivided+0xe0>)
100010f6:	0044      	lsls	r4, r0, #1
100010f8:	469c      	mov	ip, r3
100010fa:	1824      	adds	r4, r4, r0
100010fc:	00a4      	lsls	r4, r4, #2
100010fe:	4464      	add	r4, ip
10001100:	6863      	ldr	r3, [r4, #4]
10001102:	4688      	mov	r8, r1
10001104:	0016      	movs	r6, r2
10001106:	2bff      	cmp	r3, #255	@ 0xff
10001108:	d802      	bhi.n	10001110 <clock_configure_undivided+0x28>
1000110a:	2380      	movs	r3, #128	@ 0x80
1000110c:	005b      	lsls	r3, r3, #1
1000110e:	6063      	str	r3, [r4, #4]
10001110:	1f03      	subs	r3, r0, #4
10001112:	b2db      	uxtb	r3, r3
10001114:	469a      	mov	sl, r3
10001116:	2b01      	cmp	r3, #1
10001118:	d930      	bls.n	1000117c <clock_configure_undivided+0x94>
1000111a:	23c0      	movs	r3, #192	@ 0xc0
1000111c:	2280      	movs	r2, #128	@ 0x80
1000111e:	019b      	lsls	r3, r3, #6
10001120:	18e3      	adds	r3, r4, r3
10001122:	0112      	lsls	r2, r2, #4
10001124:	601a      	str	r2, [r3, #0]
10001126:	4b29      	ldr	r3, [pc, #164]	@ (100011cc <clock_configure_undivided+0xe4>)
10001128:	0085      	lsls	r5, r0, #2
1000112a:	5959      	ldr	r1, [r3, r5]
1000112c:	4699      	mov	r9, r3
1000112e:	2900      	cmp	r1, #0
10001130:	d11b      	bne.n	1000116a <clock_configure_undivided+0x82>
10001132:	0173      	lsls	r3, r6, #5
10001134:	26e0      	movs	r6, #224	@ 0xe0
10001136:	6822      	ldr	r2, [r4, #0]
10001138:	4053      	eors	r3, r2
1000113a:	401e      	ands	r6, r3
1000113c:	2380      	movs	r3, #128	@ 0x80
1000113e:	4652      	mov	r2, sl
10001140:	015b      	lsls	r3, r3, #5
10001142:	18e3      	adds	r3, r4, r3
10001144:	601e      	str	r6, [r3, #0]
10001146:	2a01      	cmp	r2, #1
10001148:	d930      	bls.n	100011ac <clock_configure_undivided+0xc4>
1000114a:	2380      	movs	r3, #128	@ 0x80
1000114c:	2280      	movs	r2, #128	@ 0x80
1000114e:	019b      	lsls	r3, r3, #6
10001150:	18e3      	adds	r3, r4, r3
10001152:	0112      	lsls	r2, r2, #4
10001154:	601a      	str	r2, [r3, #0]
10001156:	2380      	movs	r3, #128	@ 0x80
10001158:	005b      	lsls	r3, r3, #1
1000115a:	6063      	str	r3, [r4, #4]
1000115c:	464b      	mov	r3, r9
1000115e:	515f      	str	r7, [r3, r5]
10001160:	bce0      	pop	{r5, r6, r7}
10001162:	46ba      	mov	sl, r7
10001164:	46b1      	mov	r9, r6
10001166:	46a8      	mov	r8, r5
10001168:	bdf0      	pop	{r4, r5, r6, r7, pc}
1000116a:	6958      	ldr	r0, [r3, #20]
1000116c:	f000 f9de 	bl	1000152c <__wrap___aeabi_uidiv>
10001170:	3001      	adds	r0, #1
10001172:	0043      	lsls	r3, r0, #1
10001174:	181b      	adds	r3, r3, r0
10001176:	3b03      	subs	r3, #3
10001178:	d2fd      	bcs.n	10001176 <clock_configure_undivided+0x8e>
1000117a:	e7da      	b.n	10001132 <clock_configure_undivided+0x4a>
1000117c:	4643      	mov	r3, r8
1000117e:	2b01      	cmp	r3, #1
10001180:	d1cb      	bne.n	1000111a <clock_configure_undivided+0x32>
10001182:	23c0      	movs	r3, #192	@ 0xc0
10001184:	2203      	movs	r2, #3
10001186:	019b      	lsls	r3, r3, #6
10001188:	18e3      	adds	r3, r4, r3
1000118a:	601a      	str	r2, [r3, #0]
1000118c:	3a02      	subs	r2, #2
1000118e:	68a3      	ldr	r3, [r4, #8]
10001190:	421a      	tst	r2, r3
10001192:	d0fc      	beq.n	1000118e <clock_configure_undivided+0xa6>
10001194:	0173      	lsls	r3, r6, #5
10001196:	26e0      	movs	r6, #224	@ 0xe0
10001198:	6822      	ldr	r2, [r4, #0]
1000119a:	0085      	lsls	r5, r0, #2
1000119c:	4053      	eors	r3, r2
1000119e:	401e      	ands	r6, r3
100011a0:	2380      	movs	r3, #128	@ 0x80
100011a2:	4a0a      	ldr	r2, [pc, #40]	@ (100011cc <clock_configure_undivided+0xe4>)
100011a4:	015b      	lsls	r3, r3, #5
100011a6:	4691      	mov	r9, r2
100011a8:	18e3      	adds	r3, r4, r3
100011aa:	601e      	str	r6, [r3, #0]
100011ac:	4642      	mov	r2, r8
100011ae:	6821      	ldr	r1, [r4, #0]
100011b0:	4051      	eors	r1, r2
100011b2:	2203      	movs	r2, #3
100011b4:	400a      	ands	r2, r1
100011b6:	601a      	str	r2, [r3, #0]
100011b8:	2301      	movs	r3, #1
100011ba:	4642      	mov	r2, r8
100011bc:	4093      	lsls	r3, r2
100011be:	68a2      	ldr	r2, [r4, #8]
100011c0:	4213      	tst	r3, r2
100011c2:	d0fc      	beq.n	100011be <clock_configure_undivided+0xd6>
100011c4:	e7c1      	b.n	1000114a <clock_configure_undivided+0x62>
100011c6:	46c0      	nop			@ (mov r8, r8)
100011c8:	40008000 	.word	0x40008000
100011cc:	2000046c 	.word	0x2000046c

100011d0 <clock_get_hz>:
100011d0:	4b01      	ldr	r3, [pc, #4]	@ (100011d8 <clock_get_hz+0x8>)
100011d2:	0080      	lsls	r0, r0, #2
100011d4:	58c0      	ldr	r0, [r0, r3]
100011d6:	4770      	bx	lr
100011d8:	2000046c 	.word	0x2000046c

100011dc <pll_init>:
100011dc:	b5f8      	push	{r3, r4, r5, r6, r7, lr}
100011de:	0004      	movs	r4, r0
100011e0:	4821      	ldr	r0, [pc, #132]	@ (10001268 <pll_init+0x8c>)
100011e2:	001e      	movs	r6, r3
100011e4:	0017      	movs	r7, r2
100011e6:	000d      	movs	r5, r1
100011e8:	f000 f9a0 	bl	1000152c <__wrap___aeabi_uidiv>
100011ec:	0001      	movs	r1, r0
100011ee:	0038      	movs	r0, r7
100011f0:	f000 f99c 	bl	1000152c <__wrap___aeabi_uidiv>
100011f4:	9b06      	ldr	r3, [sp, #24]
100011f6:	0436      	lsls	r6, r6, #16
100011f8:	031b      	lsls	r3, r3, #12
100011fa:	431e      	orrs	r6, r3
100011fc:	6823      	ldr	r3, [r4, #0]
100011fe:	2b00      	cmp	r3, #0
10001200:	db20      	blt.n	10001244 <pll_init+0x68>
10001202:	4b1a      	ldr	r3, [pc, #104]	@ (1000126c <pll_init+0x90>)
10001204:	491a      	ldr	r1, [pc, #104]	@ (10001270 <pll_init+0x94>)
10001206:	18e3      	adds	r3, r4, r3
10001208:	1e5a      	subs	r2, r3, #1
1000120a:	4193      	sbcs	r3, r2
1000120c:	2280      	movs	r2, #128	@ 0x80
1000120e:	0192      	lsls	r2, r2, #6
10001210:	4694      	mov	ip, r2
10001212:	425b      	negs	r3, r3
10001214:	0b1b      	lsrs	r3, r3, #12
10001216:	4a17      	ldr	r2, [pc, #92]	@ (10001274 <pll_init+0x98>)
10001218:	031b      	lsls	r3, r3, #12
1000121a:	4463      	add	r3, ip
1000121c:	6013      	str	r3, [r2, #0]
1000121e:	4a16      	ldr	r2, [pc, #88]	@ (10001278 <pll_init+0x9c>)
10001220:	6013      	str	r3, [r2, #0]
10001222:	001f      	movs	r7, r3
10001224:	680a      	ldr	r2, [r1, #0]
10001226:	4397      	bics	r7, r2
10001228:	d1fb      	bne.n	10001222 <pll_init+0x46>
1000122a:	4b14      	ldr	r3, [pc, #80]	@ (1000127c <pll_init+0xa0>)
1000122c:	6025      	str	r5, [r4, #0]
1000122e:	18e2      	adds	r2, r4, r3
10001230:	2321      	movs	r3, #33	@ 0x21
10001232:	60a0      	str	r0, [r4, #8]
10001234:	6013      	str	r3, [r2, #0]
10001236:	6823      	ldr	r3, [r4, #0]
10001238:	2b00      	cmp	r3, #0
1000123a:	dafc      	bge.n	10001236 <pll_init+0x5a>
1000123c:	2308      	movs	r3, #8
1000123e:	60e6      	str	r6, [r4, #12]
10001240:	6013      	str	r3, [r2, #0]
10001242:	bdf8      	pop	{r3, r4, r5, r6, r7, pc}
10001244:	233f      	movs	r3, #63	@ 0x3f
10001246:	6822      	ldr	r2, [r4, #0]
10001248:	4013      	ands	r3, r2
1000124a:	42ab      	cmp	r3, r5
1000124c:	d1d9      	bne.n	10001202 <pll_init+0x26>
1000124e:	68a3      	ldr	r3, [r4, #8]
10001250:	051b      	lsls	r3, r3, #20
10001252:	0d1b      	lsrs	r3, r3, #20
10001254:	4283      	cmp	r3, r0
10001256:	d1d4      	bne.n	10001202 <pll_init+0x26>
10001258:	22ee      	movs	r2, #238	@ 0xee
1000125a:	68e3      	ldr	r3, [r4, #12]
1000125c:	02d2      	lsls	r2, r2, #11
1000125e:	4013      	ands	r3, r2
10001260:	42b3      	cmp	r3, r6
10001262:	d1ce      	bne.n	10001202 <pll_init+0x26>
10001264:	e7ed      	b.n	10001242 <pll_init+0x66>
10001266:	46c0      	nop			@ (mov r8, r8)
10001268:	00b71b00 	.word	0x00b71b00
1000126c:	bffd4000 	.word	0xbffd4000
10001270:	4000c008 	.word	0x4000c008
10001274:	4000e000 	.word	0x4000e000
10001278:	4000f000 	.word	0x4000f000
1000127c:	00003004 	.word	0x00003004

10001280 <tick_start>:
10001280:	2380      	movs	r3, #128	@ 0x80
10001282:	4a02      	ldr	r2, [pc, #8]	@ (1000128c <tick_start+0xc>)
10001284:	009b      	lsls	r3, r3, #2
10001286:	430b      	orrs	r3, r1
10001288:	62d3      	str	r3, [r2, #44]	@ 0x2c
1000128a:	4770      	bx	lr
1000128c:	40058000 	.word	0x40058000

10001290 <rom_func_lookup>:
10001290:	2314      	movs	r3, #20
10001292:	b510      	push	{r4, lr}
10001294:	0001      	movs	r1, r0
10001296:	8818      	ldrh	r0, [r3, #0]
10001298:	3304      	adds	r3, #4
1000129a:	881b      	ldrh	r3, [r3, #0]
1000129c:	4798      	blx	r3
1000129e:	bd10      	pop	{r4, pc}

100012a0 <rom_data_lookup>:
100012a0:	2316      	movs	r3, #22
100012a2:	b510      	push	{r4, lr}
100012a4:	0001      	movs	r1, r0
100012a6:	8818      	ldrh	r0, [r3, #0]
100012a8:	3302      	adds	r3, #2
100012aa:	881b      	ldrh	r3, [r3, #0]
100012ac:	4798      	blx	r3
100012ae:	bd10      	pop	{r4, pc}

100012b0 <rom_funcs_lookup>:
100012b0:	b5f8      	push	{r3, r4, r5, r6, r7, lr}
100012b2:	4647      	mov	r7, r8
100012b4:	46ce      	mov	lr, r9
100012b6:	b580      	push	{r7, lr}
100012b8:	1e0f      	subs	r7, r1, #0
100012ba:	d019      	beq.n	100012f0 <rom_funcs_lookup+0x40>
100012bc:	2314      	movs	r3, #20
100012be:	4699      	mov	r9, r3
100012c0:	3304      	adds	r3, #4
100012c2:	0004      	movs	r4, r0
100012c4:	2500      	movs	r5, #0
100012c6:	2601      	movs	r6, #1
100012c8:	4698      	mov	r8, r3
100012ca:	464b      	mov	r3, r9
100012cc:	8818      	ldrh	r0, [r3, #0]
100012ce:	4643      	mov	r3, r8
100012d0:	6821      	ldr	r1, [r4, #0]
100012d2:	881b      	ldrh	r3, [r3, #0]
100012d4:	4798      	blx	r3
100012d6:	c401      	stmia	r4!, {r0}
100012d8:	1e43      	subs	r3, r0, #1
100012da:	4198      	sbcs	r0, r3
100012dc:	3501      	adds	r5, #1
100012de:	4240      	negs	r0, r0
100012e0:	4006      	ands	r6, r0
100012e2:	42af      	cmp	r7, r5
100012e4:	d1f1      	bne.n	100012ca <rom_funcs_lookup+0x1a>
100012e6:	0030      	movs	r0, r6
100012e8:	bcc0      	pop	{r6, r7}
100012ea:	46b9      	mov	r9, r7
100012ec:	46b0      	mov	r8, r6
100012ee:	bdf8      	pop	{r3, r4, r5, r6, r7, pc}
100012f0:	2601      	movs	r6, #1
100012f2:	e7f8      	b.n	100012e6 <rom_funcs_lookup+0x36>

100012f4 <xosc_init>:
100012f4:	23aa      	movs	r3, #170	@ 0xaa
100012f6:	4a06      	ldr	r2, [pc, #24]	@ (10001310 <xosc_init+0x1c>)
100012f8:	011b      	lsls	r3, r3, #4
100012fa:	6013      	str	r3, [r2, #0]
100012fc:	232f      	movs	r3, #47	@ 0x2f
100012fe:	4905      	ldr	r1, [pc, #20]	@ (10001314 <xosc_init+0x20>)
10001300:	60d3      	str	r3, [r2, #12]
10001302:	4b05      	ldr	r3, [pc, #20]	@ (10001318 <xosc_init+0x24>)
10001304:	6019      	str	r1, [r3, #0]
10001306:	6853      	ldr	r3, [r2, #4]
10001308:	2b00      	cmp	r3, #0
1000130a:	dafc      	bge.n	10001306 <xosc_init+0x12>
1000130c:	4770      	bx	lr
1000130e:	46c0      	nop			@ (mov r8, r8)
10001310:	40024000 	.word	0x40024000
10001314:	00fab000 	.word	0x00fab000
10001318:	40026000 	.word	0x40026000

1000131c <first_per_core_initializer>:
1000131c:	4770      	bx	lr
1000131e:	46c0      	nop			@ (mov r8, r8)

10001320 <hard_assertion_failure>:
10001320:	b510      	push	{r4, lr}
10001322:	4801      	ldr	r0, [pc, #4]	@ (10001328 <hard_assertion_failure+0x8>)
10001324:	f7ff f9c6 	bl	100006b4 <panic>
10001328:	10003958 	.word	0x10003958

1000132c <runtime_run_initializers>:
1000132c:	b570      	push	{r4, r5, r6, lr}
1000132e:	4d07      	ldr	r5, [pc, #28]	@ (1000134c <runtime_run_initializers+0x20>)
10001330:	4e07      	ldr	r6, [pc, #28]	@ (10001350 <runtime_run_initializers+0x24>)
10001332:	42b5      	cmp	r5, r6
10001334:	d209      	bcs.n	1000134a <runtime_run_initializers+0x1e>
10001336:	2400      	movs	r4, #0
10001338:	3e01      	subs	r6, #1
1000133a:	1b76      	subs	r6, r6, r5
1000133c:	08b6      	lsrs	r6, r6, #2
1000133e:	cd08      	ldmia	r5!, {r3}
10001340:	4798      	blx	r3
10001342:	0023      	movs	r3, r4
10001344:	3401      	adds	r4, #1
10001346:	42b3      	cmp	r3, r6
10001348:	d1f9      	bne.n	1000133e <runtime_run_initializers+0x12>
1000134a:	bd70      	pop	{r4, r5, r6, pc}
1000134c:	100038c8 	.word	0x100038c8
10001350:	10003904 	.word	0x10003904

10001354 <runtime_init_early_resets>:
10001354:	4b05      	ldr	r3, [pc, #20]	@ (1000136c <runtime_init_early_resets+0x18>)
10001356:	4a06      	ldr	r2, [pc, #24]	@ (10001370 <runtime_init_early_resets+0x1c>)
10001358:	4906      	ldr	r1, [pc, #24]	@ (10001374 <runtime_init_early_resets+0x20>)
1000135a:	601a      	str	r2, [r3, #0]
1000135c:	4a06      	ldr	r2, [pc, #24]	@ (10001378 <runtime_init_early_resets+0x24>)
1000135e:	4b07      	ldr	r3, [pc, #28]	@ (1000137c <runtime_init_early_resets+0x28>)
10001360:	601a      	str	r2, [r3, #0]
10001362:	0010      	movs	r0, r2
10001364:	680b      	ldr	r3, [r1, #0]
10001366:	4398      	bics	r0, r3
10001368:	d1fb      	bne.n	10001362 <runtime_init_early_resets+0xe>
1000136a:	4770      	bx	lr
1000136c:	4000e000 	.word	0x4000e000
10001370:	fefbcdbf 	.word	0xfefbcdbf
10001374:	4000c008 	.word	0x4000c008
10001378:	003c7ffe 	.word	0x003c7ffe
1000137c:	4000f000 	.word	0x4000f000

10001380 <runtime_init_usb_power_down>:
10001380:	4b04      	ldr	r3, [pc, #16]	@ (10001394 <runtime_init_usb_power_down+0x14>)
10001382:	6cdb      	ldr	r3, [r3, #76]	@ 0x4c
10001384:	2b00      	cmp	r3, #0
10001386:	d103      	bne.n	10001390 <runtime_init_usb_power_down+0x10>
10001388:	2280      	movs	r2, #128	@ 0x80
1000138a:	4b03      	ldr	r3, [pc, #12]	@ (10001398 <runtime_init_usb_power_down+0x18>)
1000138c:	02d2      	lsls	r2, r2, #11
1000138e:	601a      	str	r2, [r3, #0]
10001390:	4770      	bx	lr
10001392:	46c0      	nop			@ (mov r8, r8)
10001394:	50110000 	.word	0x50110000
10001398:	5011204c 	.word	0x5011204c

1000139c <runtime_init_post_clock_resets>:
1000139c:	4a04      	ldr	r2, [pc, #16]	@ (100013b0 <runtime_init_post_clock_resets+0x14>)
1000139e:	4b05      	ldr	r3, [pc, #20]	@ (100013b4 <runtime_init_post_clock_resets+0x18>)
100013a0:	601a      	str	r2, [r3, #0]
100013a2:	4a05      	ldr	r2, [pc, #20]	@ (100013b8 <runtime_init_post_clock_resets+0x1c>)
100013a4:	6813      	ldr	r3, [r2, #0]
100013a6:	01db      	lsls	r3, r3, #7
100013a8:	3380      	adds	r3, #128	@ 0x80
100013aa:	d1fb      	bne.n	100013a4 <runtime_init_post_clock_resets+0x8>
100013ac:	4770      	bx	lr
100013ae:	46c0      	nop			@ (mov r8, r8)
100013b0:	01ffffff 	.word	0x01ffffff
100013b4:	4000f000 	.word	0x4000f000
100013b8:	4000c008 	.word	0x4000c008

100013bc <runtime_init_rp2040_gpio_ie_disable>:
100013bc:	2240      	movs	r2, #64	@ 0x40
100013be:	4b03      	ldr	r3, [pc, #12]	@ (100013cc <runtime_init_rp2040_gpio_ie_disable+0x10>)
100013c0:	679a      	str	r2, [r3, #120]	@ 0x78
100013c2:	675a      	str	r2, [r3, #116]	@ 0x74
100013c4:	671a      	str	r2, [r3, #112]	@ 0x70
100013c6:	66da      	str	r2, [r3, #108]	@ 0x6c
100013c8:	4770      	bx	lr
100013ca:	46c0      	nop			@ (mov r8, r8)
100013cc:	4001f000 	.word	0x4001f000

100013d0 <runtime_init_spin_locks_reset>:
100013d0:	b510      	push	{r4, lr}
100013d2:	f7ff f9b5 	bl	10000740 <spin_locks_reset>
100013d6:	bd10      	pop	{r4, pc}

100013d8 <runtime_init_install_ram_vector_table>:
100013d8:	b570      	push	{r4, r5, r6, lr}
100013da:	4d04      	ldr	r5, [pc, #16]	@ (100013ec <runtime_init_install_ram_vector_table+0x14>)
100013dc:	4c04      	ldr	r4, [pc, #16]	@ (100013f0 <runtime_init_install_ram_vector_table+0x18>)
100013de:	68a9      	ldr	r1, [r5, #8]
100013e0:	22c0      	movs	r2, #192	@ 0xc0
100013e2:	0020      	movs	r0, r4
100013e4:	f000 fc6a 	bl	10001cbc <__wrap___aeabi_memcpy>
100013e8:	60ac      	str	r4, [r5, #8]
100013ea:	bd70      	pop	{r4, r5, r6, pc}
100013ec:	e000ed00 	.word	0xe000ed00
100013f0:	20000000 	.word	0x20000000

100013f4 <runtime_init_clocks>:
100013f4:	2300      	movs	r3, #0
100013f6:	b510      	push	{r4, lr}
100013f8:	4c29      	ldr	r4, [pc, #164]	@ (100014a0 <runtime_init_clocks+0xac>)
100013fa:	b082      	sub	sp, #8
100013fc:	67a3      	str	r3, [r4, #120]	@ 0x78
100013fe:	f7ff ff79 	bl	100012f4 <xosc_init>
10001402:	2201      	movs	r2, #1
10001404:	4b27      	ldr	r3, [pc, #156]	@ (100014a4 <runtime_init_clocks+0xb0>)
10001406:	601a      	str	r2, [r3, #0]
10001408:	6c63      	ldr	r3, [r4, #68]	@ 0x44
1000140a:	2b01      	cmp	r3, #1
1000140c:	d1fc      	bne.n	10001408 <runtime_init_clocks+0x14>
1000140e:	2203      	movs	r2, #3
10001410:	4b25      	ldr	r3, [pc, #148]	@ (100014a8 <runtime_init_clocks+0xb4>)
10001412:	601a      	str	r2, [r3, #0]
10001414:	4a22      	ldr	r2, [pc, #136]	@ (100014a0 <runtime_init_clocks+0xac>)
10001416:	6b93      	ldr	r3, [r2, #56]	@ 0x38
10001418:	2b01      	cmp	r3, #1
1000141a:	d1fc      	bne.n	10001416 <runtime_init_clocks+0x22>
1000141c:	3301      	adds	r3, #1
1000141e:	9300      	str	r3, [sp, #0]
10001420:	2101      	movs	r1, #1
10001422:	4a22      	ldr	r2, [pc, #136]	@ (100014ac <runtime_init_clocks+0xb8>)
10001424:	4822      	ldr	r0, [pc, #136]	@ (100014b0 <runtime_init_clocks+0xbc>)
10001426:	3304      	adds	r3, #4
10001428:	f7ff fed8 	bl	100011dc <pll_init>
1000142c:	2305      	movs	r3, #5
1000142e:	2101      	movs	r1, #1
10001430:	9300      	str	r3, [sp, #0]
10001432:	4a20      	ldr	r2, [pc, #128]	@ (100014b4 <runtime_init_clocks+0xc0>)
10001434:	4820      	ldr	r0, [pc, #128]	@ (100014b8 <runtime_init_clocks+0xc4>)
10001436:	f7ff fed1 	bl	100011dc <pll_init>
1000143a:	2200      	movs	r2, #0
1000143c:	2102      	movs	r1, #2
1000143e:	2004      	movs	r0, #4
10001440:	4b1e      	ldr	r3, [pc, #120]	@ (100014bc <runtime_init_clocks+0xc8>)
10001442:	f7ff fe51 	bl	100010e8 <clock_configure_undivided>
10001446:	2200      	movs	r2, #0
10001448:	2101      	movs	r1, #1
1000144a:	2005      	movs	r0, #5
1000144c:	4b1c      	ldr	r3, [pc, #112]	@ (100014c0 <runtime_init_clocks+0xcc>)
1000144e:	f7ff fe4b 	bl	100010e8 <clock_configure_undivided>
10001452:	2200      	movs	r2, #0
10001454:	2100      	movs	r1, #0
10001456:	2007      	movs	r0, #7
10001458:	4b1a      	ldr	r3, [pc, #104]	@ (100014c4 <runtime_init_clocks+0xd0>)
1000145a:	f7ff fe45 	bl	100010e8 <clock_configure_undivided>
1000145e:	2200      	movs	r2, #0
10001460:	2100      	movs	r1, #0
10001462:	2008      	movs	r0, #8
10001464:	4b17      	ldr	r3, [pc, #92]	@ (100014c4 <runtime_init_clocks+0xd0>)
10001466:	f7ff fe3f 	bl	100010e8 <clock_configure_undivided>
1000146a:	2380      	movs	r3, #128	@ 0x80
1000146c:	00db      	lsls	r3, r3, #3
1000146e:	9300      	str	r3, [sp, #0]
10001470:	2200      	movs	r2, #0
10001472:	2100      	movs	r1, #0
10001474:	2009      	movs	r0, #9
10001476:	4b13      	ldr	r3, [pc, #76]	@ (100014c4 <runtime_init_clocks+0xd0>)
10001478:	f7ff fdbc 	bl	10000ff4 <clock_configure_int_divider>
1000147c:	2200      	movs	r2, #0
1000147e:	4b10      	ldr	r3, [pc, #64]	@ (100014c0 <runtime_init_clocks+0xcc>)
10001480:	2100      	movs	r1, #0
10001482:	2006      	movs	r0, #6
10001484:	f7ff fe30 	bl	100010e8 <clock_configure_undivided>
10001488:	2004      	movs	r0, #4
1000148a:	f7ff fea1 	bl	100011d0 <clock_get_hz>
1000148e:	490e      	ldr	r1, [pc, #56]	@ (100014c8 <runtime_init_clocks+0xd4>)
10001490:	f000 f84c 	bl	1000152c <__wrap___aeabi_uidiv>
10001494:	0001      	movs	r1, r0
10001496:	2000      	movs	r0, #0
10001498:	f7ff fef2 	bl	10001280 <tick_start>
1000149c:	b002      	add	sp, #8
1000149e:	bd10      	pop	{r4, pc}
100014a0:	40008000 	.word	0x40008000
100014a4:	4000b03c 	.word	0x4000b03c
100014a8:	4000b030 	.word	0x4000b030
100014ac:	59682f00 	.word	0x59682f00
100014b0:	40028000 	.word	0x40028000
100014b4:	47868c00 	.word	0x47868c00
100014b8:	4002c000 	.word	0x4002c000
100014bc:	00b71b00 	.word	0x00b71b00
100014c0:	07735940 	.word	0x07735940
100014c4:	02dc6c00 	.word	0x02dc6c00
100014c8:	000f4240 	.word	0x000f4240

100014cc <__aeabi_bits_init>:
100014cc:	4801      	ldr	r0, [pc, #4]	@ (100014d4 <__aeabi_bits_init+0x8>)
100014ce:	2104      	movs	r1, #4
100014d0:	4b01      	ldr	r3, [pc, #4]	@ (100014d8 <__aeabi_bits_init+0xc>)
100014d2:	4718      	bx	r3
100014d4:	200001c0 	.word	0x200001c0
100014d8:	100012b1 	.word	0x100012b1

100014dc <__wrap___aeabi_idiv>:
100014dc:	4a12      	ldr	r2, [pc, #72]	@ (10001528 <divmod_s32s32_savestate+0x18>)
100014de:	6f93      	ldr	r3, [r2, #120]	@ 0x78
100014e0:	089b      	lsrs	r3, r3, #2
100014e2:	d215      	bcs.n	10001510 <divmod_s32s32_savestate>

100014e4 <divmod_s32s32_unsafe>:
100014e4:	6690      	str	r0, [r2, #104]	@ 0x68
100014e6:	66d1      	str	r1, [r2, #108]	@ 0x6c
100014e8:	2900      	cmp	r1, #0
100014ea:	d005      	beq.n	100014f8 <divmod_s32s32_unsafe+0x14>
100014ec:	e7ff      	b.n	100014ee <divmod_s32s32_unsafe+0xa>
100014ee:	e7ff      	b.n	100014f0 <divmod_s32s32_unsafe+0xc>
100014f0:	e7ff      	b.n	100014f2 <divmod_s32s32_unsafe+0xe>
100014f2:	6f51      	ldr	r1, [r2, #116]	@ 0x74
100014f4:	6f10      	ldr	r0, [r2, #112]	@ 0x70
100014f6:	4770      	bx	lr
100014f8:	b504      	push	{r2, lr}
100014fa:	2180      	movs	r1, #128	@ 0x80
100014fc:	0609      	lsls	r1, r1, #24
100014fe:	17c2      	asrs	r2, r0, #31
10001500:	4051      	eors	r1, r2
10001502:	2800      	cmp	r0, #0
10001504:	d000      	beq.n	10001508 <divmod_s32s32_unsafe+0x24>
10001506:	43c8      	mvns	r0, r1
10001508:	f002 f9ce 	bl	100038a8 <____aeabi_idiv0_veneer>
1000150c:	2100      	movs	r1, #0
1000150e:	bd04      	pop	{r2, pc}

10001510 <divmod_s32s32_savestate>:
10001510:	b5f0      	push	{r4, r5, r6, r7, lr}
10001512:	6e14      	ldr	r4, [r2, #96]	@ 0x60
10001514:	6e55      	ldr	r5, [r2, #100]	@ 0x64
10001516:	6f57      	ldr	r7, [r2, #116]	@ 0x74
10001518:	6f16      	ldr	r6, [r2, #112]	@ 0x70
1000151a:	f7ff ffe3 	bl	100014e4 <divmod_s32s32_unsafe>
1000151e:	6614      	str	r4, [r2, #96]	@ 0x60
10001520:	6655      	str	r5, [r2, #100]	@ 0x64
10001522:	6757      	str	r7, [r2, #116]	@ 0x74
10001524:	6716      	str	r6, [r2, #112]	@ 0x70
10001526:	bdf0      	pop	{r4, r5, r6, r7, pc}
10001528:	d0000000 	.word	0xd0000000

1000152c <__wrap___aeabi_uidiv>:
1000152c:	4a11      	ldr	r2, [pc, #68]	@ (10001574 <divmod_u32u32_savestate+0x18>)
1000152e:	6f93      	ldr	r3, [r2, #120]	@ 0x78
10001530:	089b      	lsrs	r3, r3, #2
10001532:	d213      	bcs.n	1000155c <divmod_u32u32_savestate>

10001534 <divmod_u32u32_unsafe>:
10001534:	6610      	str	r0, [r2, #96]	@ 0x60
10001536:	6651      	str	r1, [r2, #100]	@ 0x64
10001538:	2900      	cmp	r1, #0
1000153a:	d005      	beq.n	10001548 <divmod_u32u32_unsafe+0x14>
1000153c:	e7ff      	b.n	1000153e <divmod_u32u32_unsafe+0xa>
1000153e:	e7ff      	b.n	10001540 <divmod_u32u32_unsafe+0xc>
10001540:	e7ff      	b.n	10001542 <divmod_u32u32_unsafe+0xe>
10001542:	6f51      	ldr	r1, [r2, #116]	@ 0x74
10001544:	6f10      	ldr	r0, [r2, #112]	@ 0x70
10001546:	4770      	bx	lr
10001548:	b504      	push	{r2, lr}
1000154a:	2800      	cmp	r0, #0
1000154c:	d001      	beq.n	10001552 <divmod_u32u32_unsafe+0x1e>
1000154e:	2000      	movs	r0, #0
10001550:	43c0      	mvns	r0, r0
10001552:	f002 f9a9 	bl	100038a8 <____aeabi_idiv0_veneer>
10001556:	2100      	movs	r1, #0
10001558:	bd04      	pop	{r2, pc}
1000155a:	46c0      	nop			@ (mov r8, r8)

1000155c <divmod_u32u32_savestate>:
1000155c:	b5f0      	push	{r4, r5, r6, r7, lr}
1000155e:	6e14      	ldr	r4, [r2, #96]	@ 0x60
10001560:	6e55      	ldr	r5, [r2, #100]	@ 0x64
10001562:	6f57      	ldr	r7, [r2, #116]	@ 0x74
10001564:	6f16      	ldr	r6, [r2, #112]	@ 0x70
10001566:	f7ff ffe5 	bl	10001534 <divmod_u32u32_unsafe>
1000156a:	6614      	str	r4, [r2, #96]	@ 0x60
1000156c:	6655      	str	r5, [r2, #100]	@ 0x64
1000156e:	6757      	str	r7, [r2, #116]	@ 0x74
10001570:	6716      	str	r6, [r2, #112]	@ 0x70
10001572:	bdf0      	pop	{r4, r5, r6, r7, pc}
10001574:	d0000000 	.word	0xd0000000

10001578 <__wrap___aeabi_ldivmod>:
10001578:	4694      	mov	ip, r2
1000157a:	4a4a      	ldr	r2, [pc, #296]	@ (100016a4 <udiv0+0x1a>)
1000157c:	6f92      	ldr	r2, [r2, #120]	@ 0x78
1000157e:	0892      	lsrs	r2, r2, #2
10001580:	4662      	mov	r2, ip
10001582:	d201      	bcs.n	10001588 <divmod_s64s64_savestate>
10001584:	e028      	b.n	100015d8 <divmod_s64s64_unsafe>
10001586:	46c0      	nop			@ (mov r8, r8)

10001588 <divmod_s64s64_savestate>:
10001588:	b5f0      	push	{r4, r5, r6, r7, lr}
1000158a:	4e46      	ldr	r6, [pc, #280]	@ (100016a4 <udiv0+0x1a>)
1000158c:	6e34      	ldr	r4, [r6, #96]	@ 0x60
1000158e:	6e75      	ldr	r5, [r6, #100]	@ 0x64
10001590:	6f77      	ldr	r7, [r6, #116]	@ 0x74
10001592:	6f36      	ldr	r6, [r6, #112]	@ 0x70
10001594:	f000 f820 	bl	100015d8 <divmod_s64s64_unsafe>
10001598:	4694      	mov	ip, r2
1000159a:	4a42      	ldr	r2, [pc, #264]	@ (100016a4 <udiv0+0x1a>)
1000159c:	6614      	str	r4, [r2, #96]	@ 0x60
1000159e:	6655      	str	r5, [r2, #100]	@ 0x64
100015a0:	6757      	str	r7, [r2, #116]	@ 0x74
100015a2:	6716      	str	r6, [r2, #112]	@ 0x70
100015a4:	4662      	mov	r2, ip
100015a6:	bdf0      	pop	{r4, r5, r6, r7, pc}

100015a8 <__wrap___aeabi_uldivmod>:
100015a8:	4694      	mov	ip, r2
100015aa:	4a3e      	ldr	r2, [pc, #248]	@ (100016a4 <udiv0+0x1a>)
100015ac:	6f92      	ldr	r2, [r2, #120]	@ 0x78
100015ae:	0892      	lsrs	r2, r2, #2
100015b0:	4662      	mov	r2, ip
100015b2:	d201      	bcs.n	100015b8 <divmod_u64u64_savestate>
100015b4:	e054      	b.n	10001660 <divmod_u64u64_unsafe>
100015b6:	46c0      	nop			@ (mov r8, r8)

100015b8 <divmod_u64u64_savestate>:
100015b8:	b5f0      	push	{r4, r5, r6, r7, lr}
100015ba:	4e3a      	ldr	r6, [pc, #232]	@ (100016a4 <udiv0+0x1a>)
100015bc:	6e34      	ldr	r4, [r6, #96]	@ 0x60
100015be:	6e75      	ldr	r5, [r6, #100]	@ 0x64
100015c0:	6f77      	ldr	r7, [r6, #116]	@ 0x74
100015c2:	6f36      	ldr	r6, [r6, #112]	@ 0x70
100015c4:	f000 f84c 	bl	10001660 <divmod_u64u64_unsafe>
100015c8:	4694      	mov	ip, r2
100015ca:	4a36      	ldr	r2, [pc, #216]	@ (100016a4 <udiv0+0x1a>)
100015cc:	6614      	str	r4, [r2, #96]	@ 0x60
100015ce:	6655      	str	r5, [r2, #100]	@ 0x64
100015d0:	6757      	str	r7, [r2, #116]	@ 0x74
100015d2:	6716      	str	r6, [r2, #112]	@ 0x70
100015d4:	4662      	mov	r2, ip
100015d6:	bdf0      	pop	{r4, r5, r6, r7, pc}

100015d8 <divmod_s64s64_unsafe>:
100015d8:	2b00      	cmp	r3, #0
100015da:	db24      	blt.n	10001626 <l42_1+0x26>
100015dc:	d011      	beq.n	10001602 <l42_1+0x2>
100015de:	2900      	cmp	r1, #0
100015e0:	da3e      	bge.n	10001660 <divmod_u64u64_unsafe>
100015e2:	b500      	push	{lr}
100015e4:	43c9      	mvns	r1, r1
100015e6:	4240      	negs	r0, r0
100015e8:	d100      	bne.n	100015ec <l40_1>
100015ea:	3101      	adds	r1, #1

100015ec <l40_1>:
100015ec:	f000 f838 	bl	10001660 <divmod_u64u64_unsafe>
100015f0:	43c9      	mvns	r1, r1
100015f2:	4240      	negs	r0, r0
100015f4:	d100      	bne.n	100015f8 <l41_1>
100015f6:	3101      	adds	r1, #1

100015f8 <l41_1>:
100015f8:	43db      	mvns	r3, r3
100015fa:	4252      	negs	r2, r2
100015fc:	d100      	bne.n	10001600 <l42_1>
100015fe:	3301      	adds	r3, #1

10001600 <l42_1>:
10001600:	bd00      	pop	{pc}
10001602:	2a00      	cmp	r2, #0
10001604:	d1eb      	bne.n	100015de <divmod_s64s64_unsafe+0x6>
10001606:	2800      	cmp	r0, #0
10001608:	d101      	bne.n	1000160e <l42_1+0xe>
1000160a:	2900      	cmp	r1, #0
1000160c:	d005      	beq.n	1000161a <l42_1+0x1a>
1000160e:	2000      	movs	r0, #0
10001610:	0fc9      	lsrs	r1, r1, #31
10001612:	07c9      	lsls	r1, r1, #31
10001614:	d101      	bne.n	1000161a <l42_1+0x1a>
10001616:	43c0      	mvns	r0, r0
10001618:	0841      	lsrs	r1, r0, #1
1000161a:	b500      	push	{lr}
1000161c:	f002 f93c 	bl	10003898 <____aeabi_ldiv0_veneer>
10001620:	2200      	movs	r2, #0
10001622:	2300      	movs	r3, #0
10001624:	bd00      	pop	{pc}
10001626:	b500      	push	{lr}
10001628:	2900      	cmp	r1, #0
1000162a:	db0a      	blt.n	10001642 <l44_1+0x2>
1000162c:	43db      	mvns	r3, r3
1000162e:	4252      	negs	r2, r2
10001630:	d100      	bne.n	10001634 <l43_1>
10001632:	3301      	adds	r3, #1

10001634 <l43_1>:
10001634:	f000 f814 	bl	10001660 <divmod_u64u64_unsafe>
10001638:	43c9      	mvns	r1, r1
1000163a:	4240      	negs	r0, r0
1000163c:	d100      	bne.n	10001640 <l44_1>
1000163e:	3101      	adds	r1, #1

10001640 <l44_1>:
10001640:	bd00      	pop	{pc}
10001642:	43c9      	mvns	r1, r1
10001644:	4240      	negs	r0, r0
10001646:	d100      	bne.n	1000164a <l45_1>
10001648:	3101      	adds	r1, #1

1000164a <l45_1>:
1000164a:	43db      	mvns	r3, r3
1000164c:	4252      	negs	r2, r2
1000164e:	d100      	bne.n	10001652 <l46_1>
10001650:	3301      	adds	r3, #1

10001652 <l46_1>:
10001652:	f000 f805 	bl	10001660 <divmod_u64u64_unsafe>
10001656:	43db      	mvns	r3, r3
10001658:	4252      	negs	r2, r2
1000165a:	d100      	bne.n	1000165e <l47_1>
1000165c:	3301      	adds	r3, #1

1000165e <l47_1>:
1000165e:	bd00      	pop	{pc}

10001660 <divmod_u64u64_unsafe>:
10001660:	2900      	cmp	r1, #0
10001662:	d123      	bne.n	100016ac <y64>
10001664:	2b00      	cmp	r3, #0
10001666:	d118      	bne.n	1000169a <udiv0+0x10>
10001668:	2a00      	cmp	r2, #0
1000166a:	d00c      	beq.n	10001686 <divmod_u64u64_unsafe+0x26>
1000166c:	46bc      	mov	ip, r7
1000166e:	4f0d      	ldr	r7, [pc, #52]	@ (100016a4 <udiv0+0x1a>)
10001670:	6638      	str	r0, [r7, #96]	@ 0x60
10001672:	667a      	str	r2, [r7, #100]	@ 0x64
10001674:	2100      	movs	r1, #0
10001676:	2300      	movs	r3, #0
10001678:	e7ff      	b.n	1000167a <divmod_u64u64_unsafe+0x1a>
1000167a:	e7ff      	b.n	1000167c <divmod_u64u64_unsafe+0x1c>
1000167c:	e7ff      	b.n	1000167e <divmod_u64u64_unsafe+0x1e>
1000167e:	6f7a      	ldr	r2, [r7, #116]	@ 0x74
10001680:	6f38      	ldr	r0, [r7, #112]	@ 0x70
10001682:	4667      	mov	r7, ip
10001684:	4770      	bx	lr
10001686:	2800      	cmp	r0, #0
10001688:	d001      	beq.n	1000168e <udiv0+0x4>

1000168a <udiv0>:
1000168a:	4807      	ldr	r0, [pc, #28]	@ (100016a8 <udiv0+0x1e>)
1000168c:	0001      	movs	r1, r0
1000168e:	b500      	push	{lr}
10001690:	f002 f902 	bl	10003898 <____aeabi_ldiv0_veneer>
10001694:	2200      	movs	r2, #0
10001696:	2300      	movs	r3, #0
10001698:	bd00      	pop	{pc}
1000169a:	0002      	movs	r2, r0
1000169c:	000b      	movs	r3, r1
1000169e:	2000      	movs	r0, #0
100016a0:	2100      	movs	r1, #0
100016a2:	4770      	bx	lr
100016a4:	d0000000 	.word	0xd0000000
100016a8:	ffffffff 	.word	0xffffffff

100016ac <y64>:
100016ac:	2b00      	cmp	r3, #0
100016ae:	d000      	beq.n	100016b2 <y64+0x6>
100016b0:	e0bf      	b.n	10001832 <y64_x48>
100016b2:	0c13      	lsrs	r3, r2, #16
100016b4:	d128      	bne.n	10001708 <y64_x32>
100016b6:	2a00      	cmp	r2, #0
100016b8:	d0e7      	beq.n	1000168a <udiv0>
100016ba:	b480      	push	{r7}
100016bc:	4f11      	ldr	r7, [pc, #68]	@ (10001704 <y64+0x58>)
100016be:	6639      	str	r1, [r7, #96]	@ 0x60
100016c0:	667a      	str	r2, [r7, #100]	@ 0x64
100016c2:	e7ff      	b.n	100016c4 <y64+0x18>
100016c4:	e7ff      	b.n	100016c6 <y64+0x1a>
100016c6:	b430      	push	{r4, r5}
100016c8:	0c04      	lsrs	r4, r0, #16
100016ca:	6f7b      	ldr	r3, [r7, #116]	@ 0x74
100016cc:	6f39      	ldr	r1, [r7, #112]	@ 0x70
100016ce:	041b      	lsls	r3, r3, #16
100016d0:	4323      	orrs	r3, r4
100016d2:	663b      	str	r3, [r7, #96]	@ 0x60
100016d4:	667a      	str	r2, [r7, #100]	@ 0x64
100016d6:	e7ff      	b.n	100016d8 <y64+0x2c>
100016d8:	e7ff      	b.n	100016da <y64+0x2e>
100016da:	e7ff      	b.n	100016dc <y64+0x30>
100016dc:	46c0      	nop			@ (mov r8, r8)
100016de:	b284      	uxth	r4, r0
100016e0:	6f7b      	ldr	r3, [r7, #116]	@ 0x74
100016e2:	6f3d      	ldr	r5, [r7, #112]	@ 0x70
100016e4:	041b      	lsls	r3, r3, #16
100016e6:	4323      	orrs	r3, r4
100016e8:	663b      	str	r3, [r7, #96]	@ 0x60
100016ea:	667a      	str	r2, [r7, #100]	@ 0x64
100016ec:	e7ff      	b.n	100016ee <y64+0x42>
100016ee:	e7ff      	b.n	100016f0 <y64+0x44>
100016f0:	46c0      	nop			@ (mov r8, r8)
100016f2:	2300      	movs	r3, #0
100016f4:	042c      	lsls	r4, r5, #16
100016f6:	0c2d      	lsrs	r5, r5, #16
100016f8:	6f7a      	ldr	r2, [r7, #116]	@ 0x74
100016fa:	6f38      	ldr	r0, [r7, #112]	@ 0x70
100016fc:	1900      	adds	r0, r0, r4
100016fe:	4169      	adcs	r1, r5
10001700:	bcb0      	pop	{r4, r5, r7}
10001702:	4770      	bx	lr
10001704:	d0000000 	.word	0xd0000000

10001708 <y64_x32>:
10001708:	b5f0      	push	{r4, r5, r6, r7, lr}
1000170a:	4694      	mov	ip, r2
1000170c:	2500      	movs	r5, #0
1000170e:	0e14      	lsrs	r4, r2, #24
10001710:	d101      	bne.n	10001716 <y64_x32+0xe>
10001712:	0212      	lsls	r2, r2, #8
10001714:	3508      	adds	r5, #8
10001716:	0f14      	lsrs	r4, r2, #28
10001718:	d101      	bne.n	1000171e <y64_x32+0x16>
1000171a:	0112      	lsls	r2, r2, #4
1000171c:	3504      	adds	r5, #4
1000171e:	0f94      	lsrs	r4, r2, #30
10001720:	d101      	bne.n	10001726 <y64_x32+0x1e>
10001722:	0092      	lsls	r2, r2, #2
10001724:	3502      	adds	r5, #2
10001726:	0fd4      	lsrs	r4, r2, #31
10001728:	d101      	bne.n	1000172e <y64_x32+0x26>
1000172a:	0052      	lsls	r2, r2, #1
1000172c:	3501      	adds	r5, #1
1000172e:	0bd4      	lsrs	r4, r2, #15
10001730:	3401      	adds	r4, #1
10001732:	4f25      	ldr	r7, [pc, #148]	@ (100017c8 <y64_x32+0xc0>)
10001734:	667c      	str	r4, [r7, #100]	@ 0x64
10001736:	4c25      	ldr	r4, [pc, #148]	@ (100017cc <y64_x32+0xc4>)
10001738:	663c      	str	r4, [r7, #96]	@ 0x60
1000173a:	0c0e      	lsrs	r6, r1, #16
1000173c:	b293      	uxth	r3, r2
1000173e:	e7ff      	b.n	10001740 <y64_x32+0x38>
10001740:	e7ff      	b.n	10001742 <y64_x32+0x3a>
10001742:	e7ff      	b.n	10001744 <y64_x32+0x3c>
10001744:	6f3c      	ldr	r4, [r7, #112]	@ 0x70
10001746:	4366      	muls	r6, r4
10001748:	0c36      	lsrs	r6, r6, #16
1000174a:	0377      	lsls	r7, r6, #13
1000174c:	46be      	mov	lr, r7
1000174e:	4373      	muls	r3, r6
10001750:	0bdf      	lsrs	r7, r3, #15
10001752:	045b      	lsls	r3, r3, #17
10001754:	1ac0      	subs	r0, r0, r3
10001756:	41b9      	sbcs	r1, r7
10001758:	0c13      	lsrs	r3, r2, #16
1000175a:	4373      	muls	r3, r6
1000175c:	18db      	adds	r3, r3, r3
1000175e:	1ac9      	subs	r1, r1, r3
10001760:	08ce      	lsrs	r6, r1, #3
10001762:	4366      	muls	r6, r4
10001764:	0c36      	lsrs	r6, r6, #16
10001766:	44b6      	add	lr, r6
10001768:	b293      	uxth	r3, r2
1000176a:	4373      	muls	r3, r6
1000176c:	0f1f      	lsrs	r7, r3, #28
1000176e:	011b      	lsls	r3, r3, #4
10001770:	1ac0      	subs	r0, r0, r3
10001772:	41b9      	sbcs	r1, r7
10001774:	0c13      	lsrs	r3, r2, #16
10001776:	4373      	muls	r3, r6
10001778:	0b1f      	lsrs	r7, r3, #12
1000177a:	051b      	lsls	r3, r3, #20
1000177c:	1ac0      	subs	r0, r0, r3
1000177e:	41b9      	sbcs	r1, r7
10001780:	0d86      	lsrs	r6, r0, #22
10001782:	028f      	lsls	r7, r1, #10
10001784:	433e      	orrs	r6, r7
10001786:	4366      	muls	r6, r4
10001788:	0c36      	lsrs	r6, r6, #16
1000178a:	2d09      	cmp	r5, #9
1000178c:	db24      	blt.n	100017d8 <last0>
1000178e:	0a52      	lsrs	r2, r2, #9
10001790:	4372      	muls	r2, r6
10001792:	1a80      	subs	r0, r0, r2
10001794:	0377      	lsls	r7, r6, #13
10001796:	0a46      	lsrs	r6, r0, #9
10001798:	4366      	muls	r6, r4
1000179a:	0c36      	lsrs	r6, r6, #16
1000179c:	2316      	movs	r3, #22
1000179e:	1b5b      	subs	r3, r3, r5
100017a0:	40de      	lsrs	r6, r3
100017a2:	40df      	lsrs	r7, r3
100017a4:	19bf      	adds	r7, r7, r6
100017a6:	4664      	mov	r4, ip
100017a8:	4366      	muls	r6, r4
100017aa:	1b82      	subs	r2, r0, r6
100017ac:	4670      	mov	r0, lr
100017ae:	3504      	adds	r5, #4
100017b0:	3306      	adds	r3, #6
100017b2:	0001      	movs	r1, r0
100017b4:	40d9      	lsrs	r1, r3
100017b6:	40a8      	lsls	r0, r5
100017b8:	19c0      	adds	r0, r0, r7
100017ba:	d300      	bcc.n	100017be <y64_x32+0xb6>
100017bc:	3101      	adds	r1, #1
100017be:	42a2      	cmp	r2, r4
100017c0:	d206      	bcs.n	100017d0 <y64_x32+0xc8>
100017c2:	2300      	movs	r3, #0
100017c4:	bdf0      	pop	{r4, r5, r6, r7, pc}
100017c6:	0000      	.short	0x0000
100017c8:	d0000000 	.word	0xd0000000
100017cc:	ffffffff 	.word	0xffffffff
100017d0:	1b12      	subs	r2, r2, r4
100017d2:	3001      	adds	r0, #1
100017d4:	d3f3      	bcc.n	100017be <y64_x32+0xb6>
100017d6:	e7f1      	b.n	100017bc <y64_x32+0xb4>

100017d8 <last0>:
100017d8:	2709      	movs	r7, #9
100017da:	1b7f      	subs	r7, r7, r5
100017dc:	40fe      	lsrs	r6, r7
100017de:	4664      	mov	r4, ip
100017e0:	b2a2      	uxth	r2, r4
100017e2:	4372      	muls	r2, r6
100017e4:	1a80      	subs	r0, r0, r2
100017e6:	d200      	bcs.n	100017ea <last0+0x12>
100017e8:	3901      	subs	r1, #1
100017ea:	0c22      	lsrs	r2, r4, #16
100017ec:	4372      	muls	r2, r6
100017ee:	0c13      	lsrs	r3, r2, #16
100017f0:	0412      	lsls	r2, r2, #16
100017f2:	1a82      	subs	r2, r0, r2
100017f4:	4199      	sbcs	r1, r3
100017f6:	000b      	movs	r3, r1
100017f8:	4670      	mov	r0, lr
100017fa:	3504      	adds	r5, #4
100017fc:	3713      	adds	r7, #19
100017fe:	0001      	movs	r1, r0
10001800:	40f9      	lsrs	r1, r7
10001802:	40a8      	lsls	r0, r5
10001804:	1980      	adds	r0, r0, r6
10001806:	d300      	bcc.n	1000180a <last0+0x32>
10001808:	3101      	adds	r1, #1
1000180a:	2b00      	cmp	r3, #0
1000180c:	d102      	bne.n	10001814 <last0+0x3c>
1000180e:	42a2      	cmp	r2, r4
10001810:	d20a      	bcs.n	10001828 <last0+0x50>
10001812:	bdf0      	pop	{r4, r5, r6, r7, pc}
10001814:	3001      	adds	r0, #1
10001816:	d300      	bcc.n	1000181a <last0+0x42>
10001818:	3101      	adds	r1, #1
1000181a:	1b12      	subs	r2, r2, r4
1000181c:	d2fa      	bcs.n	10001814 <last0+0x3c>
1000181e:	3b01      	subs	r3, #1
10001820:	d1f8      	bne.n	10001814 <last0+0x3c>
10001822:	42a2      	cmp	r2, r4
10001824:	d200      	bcs.n	10001828 <last0+0x50>
10001826:	bdf0      	pop	{r4, r5, r6, r7, pc}
10001828:	3001      	adds	r0, #1
1000182a:	d300      	bcc.n	1000182e <last0+0x56>
1000182c:	3101      	adds	r1, #1
1000182e:	1b12      	subs	r2, r2, r4
10001830:	e7f7      	b.n	10001822 <last0+0x4a>

10001832 <y64_x48>:
10001832:	b5f0      	push	{r4, r5, r6, r7, lr}
10001834:	0c1c      	lsrs	r4, r3, #16
10001836:	d000      	beq.n	1000183a <y64_x48+0x8>
10001838:	e080      	b.n	1000193c <y64_x64>
1000183a:	b40c      	push	{r2, r3}
1000183c:	2500      	movs	r5, #0
1000183e:	0a1c      	lsrs	r4, r3, #8
10001840:	d104      	bne.n	1000184c <y64_x48+0x1a>
10001842:	021b      	lsls	r3, r3, #8
10001844:	0e16      	lsrs	r6, r2, #24
10001846:	4333      	orrs	r3, r6
10001848:	0212      	lsls	r2, r2, #8
1000184a:	3508      	adds	r5, #8
1000184c:	0b1c      	lsrs	r4, r3, #12
1000184e:	d104      	bne.n	1000185a <y64_x48+0x28>
10001850:	011b      	lsls	r3, r3, #4
10001852:	0f16      	lsrs	r6, r2, #28
10001854:	4333      	orrs	r3, r6
10001856:	0112      	lsls	r2, r2, #4
10001858:	3504      	adds	r5, #4
1000185a:	0b9c      	lsrs	r4, r3, #14
1000185c:	d104      	bne.n	10001868 <y64_x48+0x36>
1000185e:	009b      	lsls	r3, r3, #2
10001860:	0f96      	lsrs	r6, r2, #30
10001862:	4333      	orrs	r3, r6
10001864:	0092      	lsls	r2, r2, #2
10001866:	3502      	adds	r5, #2
10001868:	0bdc      	lsrs	r4, r3, #15
1000186a:	d102      	bne.n	10001872 <y64_x48+0x40>
1000186c:	1892      	adds	r2, r2, r2
1000186e:	415b      	adcs	r3, r3
10001870:	3501      	adds	r5, #1
10001872:	001c      	movs	r4, r3
10001874:	1897      	adds	r7, r2, r2
10001876:	4164      	adcs	r4, r4
10001878:	3401      	adds	r4, #1
1000187a:	4f46      	ldr	r7, [pc, #280]	@ (10001994 <y64_x64+0x58>)
1000187c:	667c      	str	r4, [r7, #100]	@ 0x64
1000187e:	4c46      	ldr	r4, [pc, #280]	@ (10001998 <y64_x64+0x5c>)
10001880:	663c      	str	r4, [r7, #96]	@ 0x60
10001882:	0c0e      	lsrs	r6, r1, #16
10001884:	e7ff      	b.n	10001886 <y64_x48+0x54>
10001886:	e7ff      	b.n	10001888 <y64_x48+0x56>
10001888:	e7ff      	b.n	1000188a <y64_x48+0x58>
1000188a:	46c0      	nop			@ (mov r8, r8)
1000188c:	6f3c      	ldr	r4, [r7, #112]	@ 0x70
1000188e:	4366      	muls	r6, r4
10001890:	0c36      	lsrs	r6, r6, #16
10001892:	0377      	lsls	r7, r6, #13
10001894:	46be      	mov	lr, r7
10001896:	b297      	uxth	r7, r2
10001898:	4377      	muls	r7, r6
1000189a:	1bc0      	subs	r0, r0, r7
1000189c:	d200      	bcs.n	100018a0 <y64_x48+0x6e>
1000189e:	3901      	subs	r1, #1
100018a0:	1bc0      	subs	r0, r0, r7
100018a2:	d200      	bcs.n	100018a6 <y64_x48+0x74>
100018a4:	3901      	subs	r1, #1
100018a6:	b29f      	uxth	r7, r3
100018a8:	4377      	muls	r7, r6
100018aa:	1bc9      	subs	r1, r1, r7
100018ac:	1bc9      	subs	r1, r1, r7
100018ae:	0c17      	lsrs	r7, r2, #16
100018b0:	4377      	muls	r7, r6
100018b2:	047e      	lsls	r6, r7, #17
100018b4:	0bff      	lsrs	r7, r7, #15
100018b6:	1b80      	subs	r0, r0, r6
100018b8:	41b9      	sbcs	r1, r7
100018ba:	08ce      	lsrs	r6, r1, #3
100018bc:	4366      	muls	r6, r4
100018be:	0c36      	lsrs	r6, r6, #16
100018c0:	2d0c      	cmp	r5, #12
100018c2:	db33      	blt.n	1000192c <last1>
100018c4:	44b6      	add	lr, r6
100018c6:	0b12      	lsrs	r2, r2, #12
100018c8:	051f      	lsls	r7, r3, #20
100018ca:	433a      	orrs	r2, r7
100018cc:	0b1b      	lsrs	r3, r3, #12
100018ce:	b297      	uxth	r7, r2
100018d0:	4377      	muls	r7, r6
100018d2:	1bc0      	subs	r0, r0, r7
100018d4:	d200      	bcs.n	100018d8 <y64_x48+0xa6>
100018d6:	3901      	subs	r1, #1
100018d8:	b29f      	uxth	r7, r3
100018da:	4377      	muls	r7, r6
100018dc:	1bc9      	subs	r1, r1, r7
100018de:	0c17      	lsrs	r7, r2, #16
100018e0:	4377      	muls	r7, r6
100018e2:	043e      	lsls	r6, r7, #16
100018e4:	0c3f      	lsrs	r7, r7, #16
100018e6:	1b80      	subs	r0, r0, r6
100018e8:	41b9      	sbcs	r1, r7
100018ea:	0d86      	lsrs	r6, r0, #22
100018ec:	028f      	lsls	r7, r1, #10
100018ee:	433e      	orrs	r6, r7
100018f0:	4366      	muls	r6, r4
100018f2:	2729      	movs	r7, #41	@ 0x29
100018f4:	1b7f      	subs	r7, r7, r5
100018f6:	40fe      	lsrs	r6, r7
100018f8:	3d0c      	subs	r5, #12
100018fa:	4677      	mov	r7, lr
100018fc:	40af      	lsls	r7, r5
100018fe:	19bf      	adds	r7, r7, r6
10001900:	bc30      	pop	{r4, r5}
10001902:	b2a2      	uxth	r2, r4
10001904:	b2ab      	uxth	r3, r5
10001906:	4372      	muls	r2, r6
10001908:	4373      	muls	r3, r6
1000190a:	1a80      	subs	r0, r0, r2
1000190c:	4199      	sbcs	r1, r3
1000190e:	0c22      	lsrs	r2, r4, #16
10001910:	4372      	muls	r2, r6
10001912:	0c13      	lsrs	r3, r2, #16
10001914:	0412      	lsls	r2, r2, #16
10001916:	1a80      	subs	r0, r0, r2
10001918:	4199      	sbcs	r1, r3
1000191a:	0002      	movs	r2, r0
1000191c:	000b      	movs	r3, r1
1000191e:	3701      	adds	r7, #1
10001920:	1b00      	subs	r0, r0, r4
10001922:	41a9      	sbcs	r1, r5
10001924:	d2f9      	bcs.n	1000191a <y64_x48+0xe8>
10001926:	1e78      	subs	r0, r7, #1
10001928:	2100      	movs	r1, #0
1000192a:	bdf0      	pop	{r4, r5, r6, r7, pc}

1000192c <last1>:
1000192c:	270c      	movs	r7, #12
1000192e:	1b7f      	subs	r7, r7, r5
10001930:	40fe      	lsrs	r6, r7
10001932:	4677      	mov	r7, lr
10001934:	0b7f      	lsrs	r7, r7, #13
10001936:	40af      	lsls	r7, r5
10001938:	19ff      	adds	r7, r7, r7
1000193a:	e7e0      	b.n	100018fe <y64_x48+0xcc>

1000193c <y64_x64>:
1000193c:	2400      	movs	r4, #0
1000193e:	1c5d      	adds	r5, r3, #1
10001940:	d007      	beq.n	10001952 <y64_x64+0x16>
10001942:	4f14      	ldr	r7, [pc, #80]	@ (10001994 <y64_x64+0x58>)
10001944:	667d      	str	r5, [r7, #100]	@ 0x64
10001946:	6639      	str	r1, [r7, #96]	@ 0x60
10001948:	e7ff      	b.n	1000194a <y64_x64+0xe>
1000194a:	e7ff      	b.n	1000194c <y64_x64+0x10>
1000194c:	e7ff      	b.n	1000194e <y64_x64+0x12>
1000194e:	e7ff      	b.n	10001950 <y64_x64+0x14>
10001950:	6f3c      	ldr	r4, [r7, #112]	@ 0x70
10001952:	b295      	uxth	r5, r2
10001954:	b29e      	uxth	r6, r3
10001956:	4365      	muls	r5, r4
10001958:	4366      	muls	r6, r4
1000195a:	1b40      	subs	r0, r0, r5
1000195c:	41b1      	sbcs	r1, r6
1000195e:	0c15      	lsrs	r5, r2, #16
10001960:	0c1e      	lsrs	r6, r3, #16
10001962:	4365      	muls	r5, r4
10001964:	4366      	muls	r6, r4
10001966:	0436      	lsls	r6, r6, #16
10001968:	0c2f      	lsrs	r7, r5, #16
1000196a:	433e      	orrs	r6, r7
1000196c:	042d      	lsls	r5, r5, #16
1000196e:	1b40      	subs	r0, r0, r5
10001970:	41b1      	sbcs	r1, r6
10001972:	4299      	cmp	r1, r3
10001974:	d204      	bcs.n	10001980 <y64_x64+0x44>
10001976:	0002      	movs	r2, r0
10001978:	000b      	movs	r3, r1
1000197a:	0020      	movs	r0, r4
1000197c:	2100      	movs	r1, #0
1000197e:	bdf0      	pop	{r4, r5, r6, r7, pc}
10001980:	d101      	bne.n	10001986 <y64_x64+0x4a>
10001982:	4290      	cmp	r0, r2
10001984:	d3f7      	bcc.n	10001976 <y64_x64+0x3a>
10001986:	1a80      	subs	r0, r0, r2
10001988:	4199      	sbcs	r1, r3
1000198a:	3401      	adds	r4, #1
1000198c:	4299      	cmp	r1, r3
1000198e:	d3f2      	bcc.n	10001976 <y64_x64+0x3a>
10001990:	e7f6      	b.n	10001980 <y64_x64+0x44>
10001992:	0000      	.short	0x0000
10001994:	d0000000 	.word	0xd0000000
10001998:	ffffffff 	.word	0xffffffff

1000199c <__wrap___aeabi_drsub>:
1000199c:	4048      	eors	r0, r1
1000199e:	4041      	eors	r1, r0
100019a0:	4048      	eors	r0, r1

100019a2 <__wrap___aeabi_dsub>:
100019a2:	b418      	push	{r3, r4}
100019a4:	4b13      	ldr	r3, [pc, #76]	@ (100019f4 <__wrap___aeabi_dmul+0xa>)
100019a6:	685b      	ldr	r3, [r3, #4]
100019a8:	9301      	str	r3, [sp, #4]
100019aa:	bd08      	pop	{r3, pc}

100019ac <__wrap___aeabi_dadd>:
100019ac:	b418      	push	{r3, r4}
100019ae:	4b11      	ldr	r3, [pc, #68]	@ (100019f4 <__wrap___aeabi_dmul+0xa>)
100019b0:	681b      	ldr	r3, [r3, #0]
100019b2:	9301      	str	r3, [sp, #4]
100019b4:	bd08      	pop	{r3, pc}

100019b6 <__wrap___aeabi_ddiv>:
100019b6:	4694      	mov	ip, r2
100019b8:	4a0f      	ldr	r2, [pc, #60]	@ (100019f8 <__wrap___aeabi_dmul+0xe>)
100019ba:	6f92      	ldr	r2, [r2, #120]	@ 0x78
100019bc:	0892      	lsrs	r2, r2, #2
100019be:	d205      	bcs.n	100019cc <ddiv_save_state>
100019c0:	4662      	mov	r2, ip

100019c2 <ddiv_shim_call>:
100019c2:	b418      	push	{r3, r4}
100019c4:	4b0b      	ldr	r3, [pc, #44]	@ (100019f4 <__wrap___aeabi_dmul+0xa>)
100019c6:	68db      	ldr	r3, [r3, #12]
100019c8:	9301      	str	r3, [sp, #4]
100019ca:	bd08      	pop	{r3, pc}

100019cc <ddiv_save_state>:
100019cc:	4a0a      	ldr	r2, [pc, #40]	@ (100019f8 <__wrap___aeabi_dmul+0xe>)
100019ce:	b5f0      	push	{r4, r5, r6, r7, lr}
100019d0:	6e14      	ldr	r4, [r2, #96]	@ 0x60
100019d2:	6e55      	ldr	r5, [r2, #100]	@ 0x64
100019d4:	6f57      	ldr	r7, [r2, #116]	@ 0x74
100019d6:	6f16      	ldr	r6, [r2, #112]	@ 0x70
100019d8:	4662      	mov	r2, ip
100019da:	f7ff fff2 	bl	100019c2 <ddiv_shim_call>
100019de:	4a06      	ldr	r2, [pc, #24]	@ (100019f8 <__wrap___aeabi_dmul+0xe>)
100019e0:	6614      	str	r4, [r2, #96]	@ 0x60
100019e2:	6655      	str	r5, [r2, #100]	@ 0x64
100019e4:	6757      	str	r7, [r2, #116]	@ 0x74
100019e6:	6716      	str	r6, [r2, #112]	@ 0x70
100019e8:	bdf0      	pop	{r4, r5, r6, r7, pc}

100019ea <__wrap___aeabi_dmul>:
100019ea:	b418      	push	{r3, r4}
100019ec:	4b01      	ldr	r3, [pc, #4]	@ (100019f4 <__wrap___aeabi_dmul+0xa>)
100019ee:	689b      	ldr	r3, [r3, #8]
100019f0:	9301      	str	r3, [sp, #4]
100019f2:	bd08      	pop	{r3, pc}
100019f4:	20000368 	.word	0x20000368
100019f8:	d0000000 	.word	0xd0000000

100019fc <__wrap___aeabi_cdrcmple>:
100019fc:	b5ff      	push	{r0, r1, r2, r3, r4, r5, r6, r7, lr}
100019fe:	4050      	eors	r0, r2
10001a00:	4042      	eors	r2, r0
10001a02:	4050      	eors	r0, r2
10001a04:	4059      	eors	r1, r3
10001a06:	404b      	eors	r3, r1
10001a08:	4059      	eors	r1, r3
10001a0a:	e000      	b.n	10001a0e <__aeabi_dfcmple_guts>

10001a0c <__wrap___aeabi_cdcmpeq>:
10001a0c:	b5ff      	push	{r0, r1, r2, r3, r4, r5, r6, r7, lr}

10001a0e <__aeabi_dfcmple_guts>:
10001a0e:	4f15      	ldr	r7, [pc, #84]	@ (10001a64 <__aeabi_dfcmple_guts+0x56>)
10001a10:	004c      	lsls	r4, r1, #1
10001a12:	0d64      	lsrs	r4, r4, #21
10001a14:	d003      	beq.n	10001a1e <__aeabi_dfcmple_guts+0x10>
10001a16:	42bc      	cmp	r4, r7
10001a18:	d104      	bne.n	10001a24 <__aeabi_dfcmple_guts+0x16>
10001a1a:	030c      	lsls	r4, r1, #12
10001a1c:	d814      	bhi.n	10001a48 <__aeabi_dfcmple_guts+0x3a>
10001a1e:	2000      	movs	r0, #0
10001a20:	0d09      	lsrs	r1, r1, #20
10001a22:	0509      	lsls	r1, r1, #20
10001a24:	005c      	lsls	r4, r3, #1
10001a26:	0d64      	lsrs	r4, r4, #21
10001a28:	d003      	beq.n	10001a32 <__aeabi_dfcmple_guts+0x24>
10001a2a:	42bc      	cmp	r4, r7
10001a2c:	d104      	bne.n	10001a38 <__aeabi_dfcmple_guts+0x2a>
10001a2e:	031c      	lsls	r4, r3, #12
10001a30:	d80a      	bhi.n	10001a48 <__aeabi_dfcmple_guts+0x3a>
10001a32:	2200      	movs	r2, #0
10001a34:	0d1b      	lsrs	r3, r3, #20
10001a36:	051b      	lsls	r3, r3, #20
10001a38:	2601      	movs	r6, #1
10001a3a:	404b      	eors	r3, r1
10001a3c:	d409      	bmi.n	10001a52 <__aeabi_dfcmple_guts+0x44>
10001a3e:	404b      	eors	r3, r1
10001a40:	d503      	bpl.n	10001a4a <__aeabi_dfcmple_guts+0x3c>
10001a42:	428b      	cmp	r3, r1
10001a44:	d100      	bne.n	10001a48 <__aeabi_dfcmple_guts+0x3a>
10001a46:	4282      	cmp	r2, r0
10001a48:	bdff      	pop	{r0, r1, r2, r3, r4, r5, r6, r7, pc}
10001a4a:	4299      	cmp	r1, r3
10001a4c:	d1fc      	bne.n	10001a48 <__aeabi_dfcmple_guts+0x3a>
10001a4e:	4290      	cmp	r0, r2
10001a50:	bdff      	pop	{r0, r1, r2, r3, r4, r5, r6, r7, pc}
10001a52:	430b      	orrs	r3, r1
10001a54:	18db      	adds	r3, r3, r3
10001a56:	4303      	orrs	r3, r0
10001a58:	4313      	orrs	r3, r2
10001a5a:	d0f5      	beq.n	10001a48 <__aeabi_dfcmple_guts+0x3a>
10001a5c:	43c9      	mvns	r1, r1
10001a5e:	1849      	adds	r1, r1, r1
10001a60:	bdff      	pop	{r0, r1, r2, r3, r4, r5, r6, r7, pc}
10001a62:	0000      	.short	0x0000
10001a64:	000007ff 	.word	0x000007ff

10001a68 <__wrap___aeabi_dcmplt>:
10001a68:	b500      	push	{lr}
10001a6a:	f7ff ffcf 	bl	10001a0c <__wrap___aeabi_cdcmpeq>
10001a6e:	4180      	sbcs	r0, r0
10001a70:	bd00      	pop	{pc}
10001a72:	46c0      	nop			@ (mov r8, r8)

10001a74 <__wrap___aeabi_dcmpge>:
10001a74:	b500      	push	{lr}
10001a76:	f7ff ffc1 	bl	100019fc <__wrap___aeabi_cdrcmple>
10001a7a:	d901      	bls.n	10001a80 <__wrap___aeabi_dcmpge+0xc>
10001a7c:	2000      	movs	r0, #0
10001a7e:	bd00      	pop	{pc}
10001a80:	2001      	movs	r0, #1
10001a82:	bd00      	pop	{pc}

10001a84 <__wrap___aeabi_dcmpgt>:
10001a84:	b500      	push	{lr}
10001a86:	f7ff ffb9 	bl	100019fc <__wrap___aeabi_cdrcmple>
10001a8a:	4180      	sbcs	r0, r0
10001a8c:	bd00      	pop	{pc}

10001a8e <__wrap___aeabi_dcmpun>:
10001a8e:	2001      	movs	r0, #1
10001a90:	0540      	lsls	r0, r0, #21
10001a92:	004a      	lsls	r2, r1, #1
10001a94:	1812      	adds	r2, r2, r0
10001a96:	d804      	bhi.n	10001aa2 <__wrap___aeabi_dcmpun+0x14>
10001a98:	005a      	lsls	r2, r3, #1
10001a9a:	1812      	adds	r2, r2, r0
10001a9c:	d801      	bhi.n	10001aa2 <__wrap___aeabi_dcmpun+0x14>
10001a9e:	2000      	movs	r0, #0
10001aa0:	4770      	bx	lr
10001aa2:	2001      	movs	r0, #1
10001aa4:	4770      	bx	lr
	...

10001aa8 <__wrap___aeabi_ui2d>:
10001aa8:	2100      	movs	r1, #0
10001aaa:	2800      	cmp	r0, #0
10001aac:	d105      	bne.n	10001aba <__wrap___aeabi_i2d+0xa>
10001aae:	4770      	bx	lr

10001ab0 <__wrap___aeabi_i2d>:
10001ab0:	17c1      	asrs	r1, r0, #31
10001ab2:	4048      	eors	r0, r1
10001ab4:	1a40      	subs	r0, r0, r1
10001ab6:	d0fa      	beq.n	10001aae <__wrap___aeabi_ui2d+0x6>
10001ab8:	07c9      	lsls	r1, r1, #31
10001aba:	b513      	push	{r0, r1, r4, lr}
10001abc:	4b06      	ldr	r3, [pc, #24]	@ (10001ad8 <__wrap___aeabi_i2d+0x28>)
10001abe:	681b      	ldr	r3, [r3, #0]
10001ac0:	4798      	blx	r3
10001ac2:	bc0c      	pop	{r2, r3}
10001ac4:	1c44      	adds	r4, r0, #1
10001ac6:	40a2      	lsls	r2, r4
10001ac8:	0510      	lsls	r0, r2, #20
10001aca:	0b12      	lsrs	r2, r2, #12
10001acc:	4903      	ldr	r1, [pc, #12]	@ (10001adc <__wrap___aeabi_i2d+0x2c>)
10001ace:	1b09      	subs	r1, r1, r4
10001ad0:	0509      	lsls	r1, r1, #20
10001ad2:	4319      	orrs	r1, r3
10001ad4:	4311      	orrs	r1, r2
10001ad6:	bd10      	pop	{r4, pc}
10001ad8:	200004c8 	.word	0x200004c8
10001adc:	0000041f 	.word	0x0000041f

10001ae0 <__wrap___aeabi_d2iz>:
10001ae0:	b510      	push	{r4, lr}
10001ae2:	004c      	lsls	r4, r1, #1
10001ae4:	0d62      	lsrs	r2, r4, #21
10001ae6:	2380      	movs	r3, #128	@ 0x80
10001ae8:	18d2      	adds	r2, r2, r3
10001aea:	00db      	lsls	r3, r3, #3
10001aec:	1ad2      	subs	r2, r2, r3
10001aee:	055b      	lsls	r3, r3, #21
10001af0:	2a7e      	cmp	r2, #126	@ 0x7e
10001af2:	dd10      	ble.n	10001b16 <__wrap___aeabi_d2iz+0x36>
10001af4:	3a9e      	subs	r2, #158	@ 0x9e
10001af6:	da13      	bge.n	10001b20 <__wrap___aeabi_d2iz+0x40>
10001af8:	17cc      	asrs	r4, r1, #31
10001afa:	0309      	lsls	r1, r1, #12
10001afc:	0849      	lsrs	r1, r1, #1
10001afe:	4319      	orrs	r1, r3
10001b00:	4252      	negs	r2, r2
10001b02:	40d1      	lsrs	r1, r2
10001b04:	0064      	lsls	r4, r4, #1
10001b06:	3401      	adds	r4, #1
10001b08:	3215      	adds	r2, #21
10001b0a:	2a20      	cmp	r2, #32
10001b0c:	da05      	bge.n	10001b1a <__wrap___aeabi_d2iz+0x3a>
10001b0e:	40d0      	lsrs	r0, r2
10001b10:	4308      	orrs	r0, r1
10001b12:	4360      	muls	r0, r4
10001b14:	bd10      	pop	{r4, pc}
10001b16:	2000      	movs	r0, #0
10001b18:	bd10      	pop	{r4, pc}
10001b1a:	4608      	mov	r0, r1
10001b1c:	4360      	muls	r0, r4
10001b1e:	bd10      	pop	{r4, pc}
10001b20:	0fc8      	lsrs	r0, r1, #31
10001b22:	18c0      	adds	r0, r0, r3
10001b24:	3801      	subs	r0, #1
10001b26:	bd10      	pop	{r4, pc}

10001b28 <__wrap___aeabi_d2uiz>:
10001b28:	b418      	push	{r3, r4}
10001b2a:	4b02      	ldr	r3, [pc, #8]	@ (10001b34 <__wrap___aeabi_d2uiz+0xc>)
10001b2c:	6a5b      	ldr	r3, [r3, #36]	@ 0x24
10001b2e:	9301      	str	r3, [sp, #4]
10001b30:	bd08      	pop	{r3, pc}
10001b32:	0000      	.short	0x0000
10001b34:	20000368 	.word	0x20000368

10001b38 <missing_double_func_shim>:
10001b38:	b510      	push	{r4, lr}
10001b3a:	4801      	ldr	r0, [pc, #4]	@ (10001b40 <missing_double_func_shim+0x8>)
10001b3c:	f7fe fdba 	bl	100006b4 <panic>
10001b40:	10003964 	.word	0x10003964

10001b44 <__aeabi_double_init>:
10001b44:	2313      	movs	r3, #19
10001b46:	b570      	push	{r4, r5, r6, lr}
10001b48:	781d      	ldrb	r5, [r3, #0]
10001b4a:	2d01      	cmp	r5, #1
10001b4c:	d019      	beq.n	10001b82 <__aeabi_double_init+0x3e>
10001b4e:	dd14      	ble.n	10001b7a <__aeabi_double_init+0x36>
10001b50:	481d      	ldr	r0, [pc, #116]	@ (10001bc8 <__aeabi_double_init+0x84>)
10001b52:	f7ff fba5 	bl	100012a0 <rom_data_lookup>
10001b56:	0006      	movs	r6, r0
10001b58:	481c      	ldr	r0, [pc, #112]	@ (10001bcc <__aeabi_double_init+0x88>)
10001b5a:	f7ff fba1 	bl	100012a0 <rom_data_lookup>
10001b5e:	4c1c      	ldr	r4, [pc, #112]	@ (10001bd0 <__aeabi_double_init+0x8c>)
10001b60:	2280      	movs	r2, #128	@ 0x80
10001b62:	0031      	movs	r1, r6
10001b64:	0020      	movs	r0, r4
10001b66:	f000 f8a9 	bl	10001cbc <__wrap___aeabi_memcpy>
10001b6a:	2d02      	cmp	r5, #2
10001b6c:	d006      	beq.n	10001b7c <__aeabi_double_init+0x38>
10001b6e:	4819      	ldr	r0, [pc, #100]	@ (10001bd4 <__aeabi_double_init+0x90>)
10001b70:	f7ff fb8e 	bl	10001290 <rom_func_lookup>
10001b74:	4b18      	ldr	r3, [pc, #96]	@ (10001bd8 <__aeabi_double_init+0x94>)
10001b76:	6018      	str	r0, [r3, #0]
10001b78:	bd70      	pop	{r4, r5, r6, pc}
10001b7a:	4c15      	ldr	r4, [pc, #84]	@ (10001bd0 <__aeabi_double_init+0x8c>)
10001b7c:	4b17      	ldr	r3, [pc, #92]	@ (10001bdc <__aeabi_double_init+0x98>)
10001b7e:	64a3      	str	r3, [r4, #72]	@ 0x48
10001b80:	e7f5      	b.n	10001b6e <__aeabi_double_init+0x2a>
10001b82:	4b17      	ldr	r3, [pc, #92]	@ (10001be0 <__aeabi_double_init+0x9c>)
10001b84:	4c12      	ldr	r4, [pc, #72]	@ (10001bd0 <__aeabi_double_init+0x8c>)
10001b86:	6023      	str	r3, [r4, #0]
10001b88:	6063      	str	r3, [r4, #4]
10001b8a:	60a3      	str	r3, [r4, #8]
10001b8c:	60e3      	str	r3, [r4, #12]
10001b8e:	6123      	str	r3, [r4, #16]
10001b90:	6163      	str	r3, [r4, #20]
10001b92:	61a3      	str	r3, [r4, #24]
10001b94:	61e3      	str	r3, [r4, #28]
10001b96:	6223      	str	r3, [r4, #32]
10001b98:	6263      	str	r3, [r4, #36]	@ 0x24
10001b9a:	62a3      	str	r3, [r4, #40]	@ 0x28
10001b9c:	62e3      	str	r3, [r4, #44]	@ 0x2c
10001b9e:	6323      	str	r3, [r4, #48]	@ 0x30
10001ba0:	6363      	str	r3, [r4, #52]	@ 0x34
10001ba2:	63a3      	str	r3, [r4, #56]	@ 0x38
10001ba4:	63e3      	str	r3, [r4, #60]	@ 0x3c
10001ba6:	6423      	str	r3, [r4, #64]	@ 0x40
10001ba8:	6463      	str	r3, [r4, #68]	@ 0x44
10001baa:	64a3      	str	r3, [r4, #72]	@ 0x48
10001bac:	64e3      	str	r3, [r4, #76]	@ 0x4c
10001bae:	6523      	str	r3, [r4, #80]	@ 0x50
10001bb0:	6563      	str	r3, [r4, #84]	@ 0x54
10001bb2:	65a3      	str	r3, [r4, #88]	@ 0x58
10001bb4:	65e3      	str	r3, [r4, #92]	@ 0x5c
10001bb6:	6623      	str	r3, [r4, #96]	@ 0x60
10001bb8:	6663      	str	r3, [r4, #100]	@ 0x64
10001bba:	66a3      	str	r3, [r4, #104]	@ 0x68
10001bbc:	66e3      	str	r3, [r4, #108]	@ 0x6c
10001bbe:	6723      	str	r3, [r4, #112]	@ 0x70
10001bc0:	6763      	str	r3, [r4, #116]	@ 0x74
10001bc2:	67a3      	str	r3, [r4, #120]	@ 0x78
10001bc4:	67e3      	str	r3, [r4, #124]	@ 0x7c
10001bc6:	e7d9      	b.n	10001b7c <__aeabi_double_init+0x38>
10001bc8:	00004453 	.word	0x00004453
10001bcc:	00004653 	.word	0x00004653
10001bd0:	20000368 	.word	0x20000368
10001bd4:	0000334c 	.word	0x0000334c
10001bd8:	200004c8 	.word	0x200004c8
10001bdc:	10001be5 	.word	0x10001be5
10001be0:	10001b39 	.word	0x10001b39

10001be4 <double_table_shim_on_use_helper>:
10001be4:	b507      	push	{r0, r1, r2, lr}
10001be6:	4660      	mov	r0, ip
10001be8:	8801      	ldrh	r1, [r0, #0]
10001bea:	0a0a      	lsrs	r2, r1, #8
10001bec:	3002      	adds	r0, #2
10001bee:	2adf      	cmp	r2, #223	@ 0xdf
10001bf0:	d1fa      	bne.n	10001be8 <double_table_shim_on_use_helper+0x4>
10001bf2:	b2c9      	uxtb	r1, r1
10001bf4:	0882      	lsrs	r2, r0, #2
10001bf6:	d304      	bcc.n	10001c02 <double_table_shim_on_use_helper+0x1e>
10001bf8:	8802      	ldrh	r2, [r0, #0]
10001bfa:	8840      	ldrh	r0, [r0, #2]
10001bfc:	0400      	lsls	r0, r0, #16
10001bfe:	4310      	orrs	r0, r2
10001c00:	e000      	b.n	10001c04 <double_table_shim_on_use_helper+0x20>
10001c02:	6800      	ldr	r0, [r0, #0]
10001c04:	4a01      	ldr	r2, [pc, #4]	@ (10001c0c <double_table_shim_on_use_helper+0x28>)
10001c06:	5050      	str	r0, [r2, r1]
10001c08:	9003      	str	r0, [sp, #12]
10001c0a:	bd07      	pop	{r0, r1, r2, pc}
10001c0c:	20000368 	.word	0x20000368

10001c10 <__wrap___aeabi_lmul>:
10001c10:	4351      	muls	r1, r2
10001c12:	4343      	muls	r3, r0
10001c14:	18c9      	adds	r1, r1, r3
10001c16:	468c      	mov	ip, r1
10001c18:	0c11      	lsrs	r1, r2, #16
10001c1a:	b283      	uxth	r3, r0
10001c1c:	434b      	muls	r3, r1
10001c1e:	b410      	push	{r4}
10001c20:	0c04      	lsrs	r4, r0, #16
10001c22:	4361      	muls	r1, r4
10001c24:	b292      	uxth	r2, r2
10001c26:	b280      	uxth	r0, r0
10001c28:	4350      	muls	r0, r2
10001c2a:	4362      	muls	r2, r4
10001c2c:	041c      	lsls	r4, r3, #16
10001c2e:	0c1b      	lsrs	r3, r3, #16
10001c30:	1900      	adds	r0, r0, r4
10001c32:	bc10      	pop	{r4}
10001c34:	4159      	adcs	r1, r3
10001c36:	0413      	lsls	r3, r2, #16
10001c38:	0c12      	lsrs	r2, r2, #16
10001c3a:	18c0      	adds	r0, r0, r3
10001c3c:	4151      	adcs	r1, r2
10001c3e:	4461      	add	r1, ip
10001c40:	4770      	bx	lr
	...

10001c44 <missing_float_func_shim>:
10001c44:	b510      	push	{r4, lr}
10001c46:	4801      	ldr	r0, [pc, #4]	@ (10001c4c <missing_float_func_shim+0x8>)
10001c48:	f7fe fd34 	bl	100006b4 <panic>
10001c4c:	100039c0 	.word	0x100039c0

10001c50 <__aeabi_float_init>:
10001c50:	2313      	movs	r3, #19
10001c52:	b510      	push	{r4, lr}
10001c54:	4810      	ldr	r0, [pc, #64]	@ (10001c98 <__aeabi_float_init+0x48>)
10001c56:	781c      	ldrb	r4, [r3, #0]
10001c58:	f7ff fb22 	bl	100012a0 <rom_data_lookup>
10001c5c:	0001      	movs	r1, r0
10001c5e:	2c01      	cmp	r4, #1
10001c60:	d00a      	beq.n	10001c78 <__aeabi_float_init+0x28>
10001c62:	dd03      	ble.n	10001c6c <__aeabi_float_init+0x1c>
10001c64:	2280      	movs	r2, #128	@ 0x80
10001c66:	480d      	ldr	r0, [pc, #52]	@ (10001c9c <__aeabi_float_init+0x4c>)
10001c68:	f000 f828 	bl	10001cbc <__wrap___aeabi_memcpy>
10001c6c:	480c      	ldr	r0, [pc, #48]	@ (10001ca0 <__aeabi_float_init+0x50>)
10001c6e:	f7ff fb0f 	bl	10001290 <rom_func_lookup>
10001c72:	4b0c      	ldr	r3, [pc, #48]	@ (10001ca4 <__aeabi_float_init+0x54>)
10001c74:	6018      	str	r0, [r3, #0]
10001c76:	bd10      	pop	{r4, pc}
10001c78:	4c08      	ldr	r4, [pc, #32]	@ (10001c9c <__aeabi_float_init+0x4c>)
10001c7a:	2254      	movs	r2, #84	@ 0x54
10001c7c:	0020      	movs	r0, r4
10001c7e:	f000 f81d 	bl	10001cbc <__wrap___aeabi_memcpy>
10001c82:	0022      	movs	r2, r4
10001c84:	4908      	ldr	r1, [pc, #32]	@ (10001ca8 <__aeabi_float_init+0x58>)
10001c86:	3280      	adds	r2, #128	@ 0x80
10001c88:	6823      	ldr	r3, [r4, #0]
10001c8a:	2b00      	cmp	r3, #0
10001c8c:	d100      	bne.n	10001c90 <__aeabi_float_init+0x40>
10001c8e:	6021      	str	r1, [r4, #0]
10001c90:	3404      	adds	r4, #4
10001c92:	4294      	cmp	r4, r2
10001c94:	d1f8      	bne.n	10001c88 <__aeabi_float_init+0x38>
10001c96:	e7e9      	b.n	10001c6c <__aeabi_float_init+0x1c>
10001c98:	00004653 	.word	0x00004653
10001c9c:	200004cc 	.word	0x200004cc
10001ca0:	0000334c 	.word	0x0000334c
10001ca4:	200004c8 	.word	0x200004c8
10001ca8:	10001c45 	.word	0x10001c45

10001cac <__aeabi_mem_init>:
10001cac:	4801      	ldr	r0, [pc, #4]	@ (10001cb4 <__aeabi_mem_init+0x8>)
10001cae:	2104      	movs	r1, #4
10001cb0:	4b01      	ldr	r3, [pc, #4]	@ (10001cb8 <__aeabi_mem_init+0xc>)
10001cb2:	4718      	bx	r3
10001cb4:	200001d0 	.word	0x200001d0
10001cb8:	100012b1 	.word	0x100012b1

10001cbc <__wrap___aeabi_memcpy>:
10001cbc:	4b01      	ldr	r3, [pc, #4]	@ (10001cc4 <__wrap___aeabi_memcpy+0x8>)
10001cbe:	685b      	ldr	r3, [r3, #4]
10001cc0:	4718      	bx	r3
10001cc2:	0000      	.short	0x0000
10001cc4:	200001d0 	.word	0x200001d0

10001cc8 <_out_null>:
10001cc8:	4770      	bx	lr
10001cca:	46c0      	nop			@ (mov r8, r8)

10001ccc <_out_rev>:
10001ccc:	b5f8      	push	{r3, r4, r5, r6, r7, lr}
10001cce:	4657      	mov	r7, sl
10001cd0:	46de      	mov	lr, fp
10001cd2:	464e      	mov	r6, r9
10001cd4:	4645      	mov	r5, r8
10001cd6:	b5e0      	push	{r5, r6, r7, lr}
10001cd8:	4699      	mov	r9, r3
10001cda:	9b0a      	ldr	r3, [sp, #40]	@ 0x28
10001cdc:	0007      	movs	r7, r0
10001cde:	469a      	mov	sl, r3
10001ce0:	9b0d      	ldr	r3, [sp, #52]	@ 0x34
10001ce2:	4688      	mov	r8, r1
10001ce4:	4693      	mov	fp, r2
10001ce6:	9c0b      	ldr	r4, [sp, #44]	@ 0x2c
10001ce8:	079b      	lsls	r3, r3, #30
10001cea:	d13b      	bne.n	10001d64 <_out_rev+0x98>
10001cec:	9b0c      	ldr	r3, [sp, #48]	@ 0x30
10001cee:	429c      	cmp	r4, r3
10001cf0:	d23d      	bcs.n	10001d6e <_out_rev+0xa2>
10001cf2:	1b1e      	subs	r6, r3, r4
10001cf4:	940b      	str	r4, [sp, #44]	@ 0x2c
10001cf6:	0015      	movs	r5, r2
10001cf8:	000c      	movs	r4, r1
10001cfa:	445e      	add	r6, fp
10001cfc:	002a      	movs	r2, r5
10001cfe:	464b      	mov	r3, r9
10001d00:	3501      	adds	r5, #1
10001d02:	0021      	movs	r1, r4
10001d04:	2020      	movs	r0, #32
10001d06:	47b8      	blx	r7
10001d08:	42b5      	cmp	r5, r6
10001d0a:	d1f7      	bne.n	10001cfc <_out_rev+0x30>
10001d0c:	46a0      	mov	r8, r4
10001d0e:	9c0b      	ldr	r4, [sp, #44]	@ 0x2c
10001d10:	2c00      	cmp	r4, #0
10001d12:	d020      	beq.n	10001d56 <_out_rev+0x8a>
10001d14:	4645      	mov	r5, r8
10001d16:	1936      	adds	r6, r6, r4
10001d18:	4653      	mov	r3, sl
10001d1a:	1b32      	subs	r2, r6, r4
10001d1c:	3c01      	subs	r4, #1
10001d1e:	5d18      	ldrb	r0, [r3, r4]
10001d20:	0029      	movs	r1, r5
10001d22:	464b      	mov	r3, r9
10001d24:	47b8      	blx	r7
10001d26:	2c00      	cmp	r4, #0
10001d28:	d1f6      	bne.n	10001d18 <_out_rev+0x4c>
10001d2a:	002b      	movs	r3, r5
10001d2c:	0035      	movs	r5, r6
10001d2e:	4698      	mov	r8, r3
10001d30:	9b0d      	ldr	r3, [sp, #52]	@ 0x34
10001d32:	079b      	lsls	r3, r3, #30
10001d34:	d50f      	bpl.n	10001d56 <_out_rev+0x8a>
10001d36:	465b      	mov	r3, fp
10001d38:	1aec      	subs	r4, r5, r3
10001d3a:	9b0c      	ldr	r3, [sp, #48]	@ 0x30
10001d3c:	42a3      	cmp	r3, r4
10001d3e:	d90a      	bls.n	10001d56 <_out_rev+0x8a>
10001d40:	4646      	mov	r6, r8
10001d42:	4698      	mov	r8, r3
10001d44:	002a      	movs	r2, r5
10001d46:	464b      	mov	r3, r9
10001d48:	0031      	movs	r1, r6
10001d4a:	2020      	movs	r0, #32
10001d4c:	3401      	adds	r4, #1
10001d4e:	47b8      	blx	r7
10001d50:	3501      	adds	r5, #1
10001d52:	4544      	cmp	r4, r8
10001d54:	d3f6      	bcc.n	10001d44 <_out_rev+0x78>
10001d56:	0028      	movs	r0, r5
10001d58:	bcf0      	pop	{r4, r5, r6, r7}
10001d5a:	46bb      	mov	fp, r7
10001d5c:	46b2      	mov	sl, r6
10001d5e:	46a9      	mov	r9, r5
10001d60:	46a0      	mov	r8, r4
10001d62:	bdf8      	pop	{r3, r4, r5, r6, r7, pc}
10001d64:	0016      	movs	r6, r2
10001d66:	0015      	movs	r5, r2
10001d68:	2c00      	cmp	r4, #0
10001d6a:	d1d3      	bne.n	10001d14 <_out_rev+0x48>
10001d6c:	e7e0      	b.n	10001d30 <_out_rev+0x64>
10001d6e:	0016      	movs	r6, r2
10001d70:	2c00      	cmp	r4, #0
10001d72:	d1cf      	bne.n	10001d14 <_out_rev+0x48>
10001d74:	0015      	movs	r5, r2
10001d76:	e7ee      	b.n	10001d56 <_out_rev+0x8a>

10001d78 <_ntoa_format>:
10001d78:	b5f0      	push	{r4, r5, r6, r7, lr}
10001d7a:	464f      	mov	r7, r9
10001d7c:	4646      	mov	r6, r8
10001d7e:	46d6      	mov	lr, sl
10001d80:	b5c0      	push	{r6, r7, lr}
10001d82:	b084      	sub	sp, #16
10001d84:	4698      	mov	r8, r3
10001d86:	ab0e      	add	r3, sp, #56	@ 0x38
10001d88:	781b      	ldrb	r3, [r3, #0]
10001d8a:	4694      	mov	ip, r2
10001d8c:	4699      	mov	r9, r3
10001d8e:	9b12      	ldr	r3, [sp, #72]	@ 0x48
10001d90:	9c0d      	ldr	r4, [sp, #52]	@ 0x34
10001d92:	9f10      	ldr	r7, [sp, #64]	@ 0x40
10001d94:	9e11      	ldr	r6, [sp, #68]	@ 0x44
10001d96:	079a      	lsls	r2, r3, #30
10001d98:	d425      	bmi.n	10001de6 <_ntoa_format+0x6e>
10001d9a:	2e00      	cmp	r6, #0
10001d9c:	d165      	bne.n	10001e6a <_ntoa_format+0xf2>
10001d9e:	42bc      	cmp	r4, r7
10001da0:	d221      	bcs.n	10001de6 <_ntoa_format+0x6e>
10001da2:	2201      	movs	r2, #1
10001da4:	401a      	ands	r2, r3
10001da6:	4692      	mov	sl, r2
10001da8:	2c20      	cmp	r4, #32
10001daa:	d100      	bne.n	10001dae <_ntoa_format+0x36>
10001dac:	e0e9      	b.n	10001f82 <_ntoa_format+0x20a>
10001dae:	9a0c      	ldr	r2, [sp, #48]	@ 0x30
10001db0:	1e55      	subs	r5, r2, #1
10001db2:	2230      	movs	r2, #48	@ 0x30
10001db4:	e002      	b.n	10001dbc <_ntoa_format+0x44>
10001db6:	2c20      	cmp	r4, #32
10001db8:	d100      	bne.n	10001dbc <_ntoa_format+0x44>
10001dba:	e07b      	b.n	10001eb4 <_ntoa_format+0x13c>
10001dbc:	3401      	adds	r4, #1
10001dbe:	552a      	strb	r2, [r5, r4]
10001dc0:	42a7      	cmp	r7, r4
10001dc2:	d8f8      	bhi.n	10001db6 <_ntoa_format+0x3e>
10001dc4:	4652      	mov	r2, sl
10001dc6:	2a00      	cmp	r2, #0
10001dc8:	d00d      	beq.n	10001de6 <_ntoa_format+0x6e>
10001dca:	42b4      	cmp	r4, r6
10001dcc:	d20b      	bcs.n	10001de6 <_ntoa_format+0x6e>
10001dce:	9a0c      	ldr	r2, [sp, #48]	@ 0x30
10001dd0:	1e55      	subs	r5, r2, #1
10001dd2:	2230      	movs	r2, #48	@ 0x30
10001dd4:	2c20      	cmp	r4, #32
10001dd6:	d102      	bne.n	10001dde <_ntoa_format+0x66>
10001dd8:	e071      	b.n	10001ebe <_ntoa_format+0x146>
10001dda:	2c20      	cmp	r4, #32
10001ddc:	d02d      	beq.n	10001e3a <_ntoa_format+0xc2>
10001dde:	3401      	adds	r4, #1
10001de0:	552a      	strb	r2, [r5, r4]
10001de2:	42b4      	cmp	r4, r6
10001de4:	d1f9      	bne.n	10001dda <_ntoa_format+0x62>
10001de6:	06da      	lsls	r2, r3, #27
10001de8:	d53c      	bpl.n	10001e64 <_ntoa_format+0xec>
10001dea:	055a      	lsls	r2, r3, #21
10001dec:	d42e      	bmi.n	10001e4c <_ntoa_format+0xd4>
10001dee:	2c00      	cmp	r4, #0
10001df0:	d128      	bne.n	10001e44 <_ntoa_format+0xcc>
10001df2:	9a0f      	ldr	r2, [sp, #60]	@ 0x3c
10001df4:	2a10      	cmp	r2, #16
10001df6:	d100      	bne.n	10001dfa <_ntoa_format+0x82>
10001df8:	e0b6      	b.n	10001f68 <_ntoa_format+0x1f0>
10001dfa:	2a02      	cmp	r2, #2
10001dfc:	d100      	bne.n	10001e00 <_ntoa_format+0x88>
10001dfe:	e0bc      	b.n	10001f7a <_ntoa_format+0x202>
10001e00:	2230      	movs	r2, #48	@ 0x30
10001e02:	9c0c      	ldr	r4, [sp, #48]	@ 0x30
10001e04:	7022      	strb	r2, [r4, #0]
10001e06:	2401      	movs	r4, #1
10001e08:	464a      	mov	r2, r9
10001e0a:	2a00      	cmp	r2, #0
10001e0c:	d165      	bne.n	10001eda <_ntoa_format+0x162>
10001e0e:	075a      	lsls	r2, r3, #29
10001e10:	d400      	bmi.n	10001e14 <_ntoa_format+0x9c>
10001e12:	e099      	b.n	10001f48 <_ntoa_format+0x1d0>
10001e14:	222b      	movs	r2, #43	@ 0x2b
10001e16:	9d0c      	ldr	r5, [sp, #48]	@ 0x30
10001e18:	552a      	strb	r2, [r5, r4]
10001e1a:	3401      	adds	r4, #1
10001e1c:	9303      	str	r3, [sp, #12]
10001e1e:	9b0c      	ldr	r3, [sp, #48]	@ 0x30
10001e20:	4662      	mov	r2, ip
10001e22:	9300      	str	r3, [sp, #0]
10001e24:	9602      	str	r6, [sp, #8]
10001e26:	4643      	mov	r3, r8
10001e28:	9401      	str	r4, [sp, #4]
10001e2a:	f7ff ff4f 	bl	10001ccc <_out_rev>
10001e2e:	b004      	add	sp, #16
10001e30:	bce0      	pop	{r5, r6, r7}
10001e32:	46ba      	mov	sl, r7
10001e34:	46b1      	mov	r9, r6
10001e36:	46a8      	mov	r8, r5
10001e38:	bdf0      	pop	{r4, r5, r6, r7, pc}
10001e3a:	2420      	movs	r4, #32
10001e3c:	06da      	lsls	r2, r3, #27
10001e3e:	d5ed      	bpl.n	10001e1c <_ntoa_format+0xa4>
10001e40:	055a      	lsls	r2, r3, #21
10001e42:	d403      	bmi.n	10001e4c <_ntoa_format+0xd4>
10001e44:	42a7      	cmp	r7, r4
10001e46:	d066      	beq.n	10001f16 <_ntoa_format+0x19e>
10001e48:	42b4      	cmp	r4, r6
10001e4a:	d064      	beq.n	10001f16 <_ntoa_format+0x19e>
10001e4c:	9a0f      	ldr	r2, [sp, #60]	@ 0x3c
10001e4e:	2a10      	cmp	r2, #16
10001e50:	d071      	beq.n	10001f36 <_ntoa_format+0x1be>
10001e52:	2a02      	cmp	r2, #2
10001e54:	d057      	beq.n	10001f06 <_ntoa_format+0x18e>
10001e56:	2c20      	cmp	r4, #32
10001e58:	d0e0      	beq.n	10001e1c <_ntoa_format+0xa4>
10001e5a:	0022      	movs	r2, r4
10001e5c:	3401      	adds	r4, #1
10001e5e:	2530      	movs	r5, #48	@ 0x30
10001e60:	9f0c      	ldr	r7, [sp, #48]	@ 0x30
10001e62:	54bd      	strb	r5, [r7, r2]
10001e64:	2c20      	cmp	r4, #32
10001e66:	d0d9      	beq.n	10001e1c <_ntoa_format+0xa4>
10001e68:	e7ce      	b.n	10001e08 <_ntoa_format+0x90>
10001e6a:	2201      	movs	r2, #1
10001e6c:	0015      	movs	r5, r2
10001e6e:	401d      	ands	r5, r3
10001e70:	46aa      	mov	sl, r5
10001e72:	421a      	tst	r2, r3
10001e74:	d036      	beq.n	10001ee4 <_ntoa_format+0x16c>
10001e76:	464a      	mov	r2, r9
10001e78:	2a00      	cmp	r2, #0
10001e7a:	d14a      	bne.n	10001f12 <_ntoa_format+0x19a>
10001e7c:	320c      	adds	r2, #12
10001e7e:	421a      	tst	r2, r3
10001e80:	d147      	bne.n	10001f12 <_ntoa_format+0x19a>
10001e82:	42bc      	cmp	r4, r7
10001e84:	d2a1      	bcs.n	10001dca <_ntoa_format+0x52>
10001e86:	2c20      	cmp	r4, #32
10001e88:	d191      	bne.n	10001dae <_ntoa_format+0x36>
10001e8a:	2e20      	cmp	r6, #32
10001e8c:	d817      	bhi.n	10001ebe <_ntoa_format+0x146>
10001e8e:	2420      	movs	r4, #32
10001e90:	06da      	lsls	r2, r3, #27
10001e92:	d5c3      	bpl.n	10001e1c <_ntoa_format+0xa4>
10001e94:	055a      	lsls	r2, r3, #21
10001e96:	d41b      	bmi.n	10001ed0 <_ntoa_format+0x158>
10001e98:	2f20      	cmp	r7, #32
10001e9a:	d001      	beq.n	10001ea0 <_ntoa_format+0x128>
10001e9c:	2e20      	cmp	r6, #32
10001e9e:	d1d5      	bne.n	10001e4c <_ntoa_format+0xd4>
10001ea0:	221f      	movs	r2, #31
10001ea2:	9d0f      	ldr	r5, [sp, #60]	@ 0x3c
10001ea4:	2d10      	cmp	r5, #16
10001ea6:	d06f      	beq.n	10001f88 <_ntoa_format+0x210>
10001ea8:	2d02      	cmp	r5, #2
10001eaa:	d1d8      	bne.n	10001e5e <_ntoa_format+0xe6>
10001eac:	2562      	movs	r5, #98	@ 0x62
10001eae:	9f0c      	ldr	r7, [sp, #48]	@ 0x30
10001eb0:	54bd      	strb	r5, [r7, r2]
10001eb2:	e7d0      	b.n	10001e56 <_ntoa_format+0xde>
10001eb4:	4652      	mov	r2, sl
10001eb6:	2a00      	cmp	r2, #0
10001eb8:	d079      	beq.n	10001fae <_ntoa_format+0x236>
10001eba:	2e20      	cmp	r6, #32
10001ebc:	d9bd      	bls.n	10001e3a <_ntoa_format+0xc2>
10001ebe:	2420      	movs	r4, #32
10001ec0:	06da      	lsls	r2, r3, #27
10001ec2:	d5ab      	bpl.n	10001e1c <_ntoa_format+0xa4>
10001ec4:	055a      	lsls	r2, r3, #21
10001ec6:	d403      	bmi.n	10001ed0 <_ntoa_format+0x158>
10001ec8:	2f20      	cmp	r7, #32
10001eca:	d0e9      	beq.n	10001ea0 <_ntoa_format+0x128>
10001ecc:	2e20      	cmp	r6, #32
10001ece:	d0e7      	beq.n	10001ea0 <_ntoa_format+0x128>
10001ed0:	9a0f      	ldr	r2, [sp, #60]	@ 0x3c
10001ed2:	2a10      	cmp	r2, #16
10001ed4:	d1a2      	bne.n	10001e1c <_ntoa_format+0xa4>
10001ed6:	2420      	movs	r4, #32
10001ed8:	e7a0      	b.n	10001e1c <_ntoa_format+0xa4>
10001eda:	222d      	movs	r2, #45	@ 0x2d
10001edc:	9d0c      	ldr	r5, [sp, #48]	@ 0x30
10001ede:	552a      	strb	r2, [r5, r4]
10001ee0:	3401      	adds	r4, #1
10001ee2:	e79b      	b.n	10001e1c <_ntoa_format+0xa4>
10001ee4:	42bc      	cmp	r4, r7
10001ee6:	d300      	bcc.n	10001eea <_ntoa_format+0x172>
10001ee8:	e77d      	b.n	10001de6 <_ntoa_format+0x6e>
10001eea:	2c20      	cmp	r4, #32
10001eec:	d000      	beq.n	10001ef0 <_ntoa_format+0x178>
10001eee:	e75e      	b.n	10001dae <_ntoa_format+0x36>
10001ef0:	06da      	lsls	r2, r3, #27
10001ef2:	d5f0      	bpl.n	10001ed6 <_ntoa_format+0x15e>
10001ef4:	055a      	lsls	r2, r3, #21
10001ef6:	d4ee      	bmi.n	10001ed6 <_ntoa_format+0x15e>
10001ef8:	2f20      	cmp	r7, #32
10001efa:	d062      	beq.n	10001fc2 <_ntoa_format+0x24a>
10001efc:	2e20      	cmp	r6, #32
10001efe:	d1ea      	bne.n	10001ed6 <_ntoa_format+0x15e>
10001f00:	0034      	movs	r4, r6
10001f02:	221f      	movs	r2, #31
10001f04:	e7cd      	b.n	10001ea2 <_ntoa_format+0x12a>
10001f06:	2c20      	cmp	r4, #32
10001f08:	d100      	bne.n	10001f0c <_ntoa_format+0x194>
10001f0a:	e787      	b.n	10001e1c <_ntoa_format+0xa4>
10001f0c:	0022      	movs	r2, r4
10001f0e:	3401      	adds	r4, #1
10001f10:	e7cc      	b.n	10001eac <_ntoa_format+0x134>
10001f12:	3e01      	subs	r6, #1
10001f14:	e7b5      	b.n	10001e82 <_ntoa_format+0x10a>
10001f16:	1e62      	subs	r2, r4, #1
10001f18:	2c01      	cmp	r4, #1
10001f1a:	d1c2      	bne.n	10001ea2 <_ntoa_format+0x12a>
10001f1c:	9a0f      	ldr	r2, [sp, #60]	@ 0x3c
10001f1e:	2a10      	cmp	r2, #16
10001f20:	d000      	beq.n	10001f24 <_ntoa_format+0x1ac>
10001f22:	e76a      	b.n	10001dfa <_ntoa_format+0x82>
10001f24:	069a      	lsls	r2, r3, #26
10001f26:	d53b      	bpl.n	10001fa0 <_ntoa_format+0x228>
10001f28:	2258      	movs	r2, #88	@ 0x58
10001f2a:	9c0c      	ldr	r4, [sp, #48]	@ 0x30
10001f2c:	7022      	strb	r2, [r4, #0]
10001f2e:	3a28      	subs	r2, #40	@ 0x28
10001f30:	7062      	strb	r2, [r4, #1]
10001f32:	2402      	movs	r4, #2
10001f34:	e768      	b.n	10001e08 <_ntoa_format+0x90>
10001f36:	069a      	lsls	r2, r3, #26
10001f38:	d40e      	bmi.n	10001f58 <_ntoa_format+0x1e0>
10001f3a:	2c20      	cmp	r4, #32
10001f3c:	d0cb      	beq.n	10001ed6 <_ntoa_format+0x15e>
10001f3e:	2278      	movs	r2, #120	@ 0x78
10001f40:	9d0c      	ldr	r5, [sp, #48]	@ 0x30
10001f42:	552a      	strb	r2, [r5, r4]
10001f44:	3401      	adds	r4, #1
10001f46:	e786      	b.n	10001e56 <_ntoa_format+0xde>
10001f48:	071a      	lsls	r2, r3, #28
10001f4a:	d400      	bmi.n	10001f4e <_ntoa_format+0x1d6>
10001f4c:	e766      	b.n	10001e1c <_ntoa_format+0xa4>
10001f4e:	2220      	movs	r2, #32
10001f50:	9d0c      	ldr	r5, [sp, #48]	@ 0x30
10001f52:	552a      	strb	r2, [r5, r4]
10001f54:	3401      	adds	r4, #1
10001f56:	e761      	b.n	10001e1c <_ntoa_format+0xa4>
10001f58:	2c20      	cmp	r4, #32
10001f5a:	d0bc      	beq.n	10001ed6 <_ntoa_format+0x15e>
10001f5c:	2558      	movs	r5, #88	@ 0x58
10001f5e:	9a0c      	ldr	r2, [sp, #48]	@ 0x30
10001f60:	1912      	adds	r2, r2, r4
10001f62:	7015      	strb	r5, [r2, #0]
10001f64:	3401      	adds	r4, #1
10001f66:	e776      	b.n	10001e56 <_ntoa_format+0xde>
10001f68:	069a      	lsls	r2, r3, #26
10001f6a:	d508      	bpl.n	10001f7e <_ntoa_format+0x206>
10001f6c:	2258      	movs	r2, #88	@ 0x58
10001f6e:	9c0c      	ldr	r4, [sp, #48]	@ 0x30
10001f70:	7022      	strb	r2, [r4, #0]
10001f72:	2230      	movs	r2, #48	@ 0x30
10001f74:	7062      	strb	r2, [r4, #1]
10001f76:	2402      	movs	r4, #2
10001f78:	e746      	b.n	10001e08 <_ntoa_format+0x90>
10001f7a:	3260      	adds	r2, #96	@ 0x60
10001f7c:	e7f7      	b.n	10001f6e <_ntoa_format+0x1f6>
10001f7e:	2278      	movs	r2, #120	@ 0x78
10001f80:	e7f5      	b.n	10001f6e <_ntoa_format+0x1f6>
10001f82:	2a00      	cmp	r2, #0
10001f84:	d183      	bne.n	10001e8e <_ntoa_format+0x116>
10001f86:	e7b3      	b.n	10001ef0 <_ntoa_format+0x178>
10001f88:	1ea2      	subs	r2, r4, #2
10001f8a:	3c01      	subs	r4, #1
10001f8c:	069d      	lsls	r5, r3, #26
10001f8e:	d403      	bmi.n	10001f98 <_ntoa_format+0x220>
10001f90:	2578      	movs	r5, #120	@ 0x78
10001f92:	9f0c      	ldr	r7, [sp, #48]	@ 0x30
10001f94:	54bd      	strb	r5, [r7, r2]
10001f96:	e760      	b.n	10001e5a <_ntoa_format+0xe2>
10001f98:	2558      	movs	r5, #88	@ 0x58
10001f9a:	9f0c      	ldr	r7, [sp, #48]	@ 0x30
10001f9c:	54bd      	strb	r5, [r7, r2]
10001f9e:	e75c      	b.n	10001e5a <_ntoa_format+0xe2>
10001fa0:	2278      	movs	r2, #120	@ 0x78
10001fa2:	9c0c      	ldr	r4, [sp, #48]	@ 0x30
10001fa4:	7022      	strb	r2, [r4, #0]
10001fa6:	3a48      	subs	r2, #72	@ 0x48
10001fa8:	7062      	strb	r2, [r4, #1]
10001faa:	2402      	movs	r4, #2
10001fac:	e72c      	b.n	10001e08 <_ntoa_format+0x90>
10001fae:	06da      	lsls	r2, r3, #27
10001fb0:	d400      	bmi.n	10001fb4 <_ntoa_format+0x23c>
10001fb2:	e733      	b.n	10001e1c <_ntoa_format+0xa4>
10001fb4:	055a      	lsls	r2, r3, #21
10001fb6:	d48b      	bmi.n	10001ed0 <_ntoa_format+0x158>
10001fb8:	2f20      	cmp	r7, #32
10001fba:	d000      	beq.n	10001fbe <_ntoa_format+0x246>
10001fbc:	e744      	b.n	10001e48 <_ntoa_format+0xd0>
10001fbe:	221f      	movs	r2, #31
10001fc0:	e76f      	b.n	10001ea2 <_ntoa_format+0x12a>
10001fc2:	003c      	movs	r4, r7
10001fc4:	221f      	movs	r2, #31
10001fc6:	e76c      	b.n	10001ea2 <_ntoa_format+0x12a>

10001fc8 <_out_char>:
10001fc8:	b510      	push	{r4, lr}
10001fca:	2800      	cmp	r0, #0
10001fcc:	d100      	bne.n	10001fd0 <_out_char+0x8>
10001fce:	bd10      	pop	{r4, pc}
10001fd0:	f001 fb4a 	bl	10003668 <__wrap_putchar>
10001fd4:	e7fb      	b.n	10001fce <_out_char+0x6>
10001fd6:	46c0      	nop			@ (mov r8, r8)

10001fd8 <_out_fct>:
10001fd8:	000b      	movs	r3, r1
10001fda:	b510      	push	{r4, lr}
10001fdc:	2800      	cmp	r0, #0
10001fde:	d002      	beq.n	10001fe6 <_out_fct+0xe>
10001fe0:	6849      	ldr	r1, [r1, #4]
10001fe2:	681b      	ldr	r3, [r3, #0]
10001fe4:	4798      	blx	r3
10001fe6:	bd10      	pop	{r4, pc}

10001fe8 <_etoa>:
10001fe8:	b5f0      	push	{r4, r5, r6, r7, lr}
10001fea:	4657      	mov	r7, sl
10001fec:	464e      	mov	r6, r9
10001fee:	4645      	mov	r5, r8
10001ff0:	46de      	mov	lr, fp
10001ff2:	b5e0      	push	{r5, r6, r7, lr}
10001ff4:	b099      	sub	sp, #100	@ 0x64
10001ff6:	4682      	mov	sl, r0
10001ff8:	4689      	mov	r9, r1
10001ffa:	4690      	mov	r8, r2
10001ffc:	9308      	str	r3, [sp, #32]
10001ffe:	9a22      	ldr	r2, [sp, #136]	@ 0x88
10002000:	9b23      	ldr	r3, [sp, #140]	@ 0x8c
10002002:	0010      	movs	r0, r2
10002004:	0019      	movs	r1, r3
10002006:	f7ff fd42 	bl	10001a8e <__wrap___aeabi_dcmpun>
1000200a:	2800      	cmp	r0, #0
1000200c:	d000      	beq.n	10002010 <_etoa+0x28>
1000200e:	e0cd      	b.n	100021ac <_etoa+0x1c4>
10002010:	9822      	ldr	r0, [sp, #136]	@ 0x88
10002012:	9923      	ldr	r1, [sp, #140]	@ 0x8c
10002014:	2201      	movs	r2, #1
10002016:	4bd9      	ldr	r3, [pc, #868]	@ (1000237c <_etoa+0x394>)
10002018:	4252      	negs	r2, r2
1000201a:	f7ff fd33 	bl	10001a84 <__wrap___aeabi_dcmpgt>
1000201e:	2800      	cmp	r0, #0
10002020:	d000      	beq.n	10002024 <_etoa+0x3c>
10002022:	e0c3      	b.n	100021ac <_etoa+0x1c4>
10002024:	9822      	ldr	r0, [sp, #136]	@ 0x88
10002026:	9923      	ldr	r1, [sp, #140]	@ 0x8c
10002028:	2201      	movs	r2, #1
1000202a:	4bd5      	ldr	r3, [pc, #852]	@ (10002380 <_etoa+0x398>)
1000202c:	4252      	negs	r2, r2
1000202e:	f7ff fd1b 	bl	10001a68 <__wrap___aeabi_dcmplt>
10002032:	2800      	cmp	r0, #0
10002034:	d000      	beq.n	10002038 <_etoa+0x50>
10002036:	e0b9      	b.n	100021ac <_etoa+0x1c4>
10002038:	9822      	ldr	r0, [sp, #136]	@ 0x88
1000203a:	9923      	ldr	r1, [sp, #140]	@ 0x8c
1000203c:	2200      	movs	r2, #0
1000203e:	2300      	movs	r3, #0
10002040:	f7ff fd12 	bl	10001a68 <__wrap___aeabi_dcmplt>
10002044:	2800      	cmp	r0, #0
10002046:	d000      	beq.n	1000204a <_etoa+0x62>
10002048:	e1f1      	b.n	1000242e <_etoa+0x446>
1000204a:	9e22      	ldr	r6, [sp, #136]	@ 0x88
1000204c:	9f23      	ldr	r7, [sp, #140]	@ 0x8c
1000204e:	2380      	movs	r3, #128	@ 0x80
10002050:	9a26      	ldr	r2, [sp, #152]	@ 0x98
10002052:	00db      	lsls	r3, r3, #3
10002054:	401a      	ands	r2, r3
10002056:	920d      	str	r2, [sp, #52]	@ 0x34
10002058:	9a26      	ldr	r2, [sp, #152]	@ 0x98
1000205a:	421a      	tst	r2, r3
1000205c:	d101      	bne.n	10002062 <_etoa+0x7a>
1000205e:	2306      	movs	r3, #6
10002060:	9324      	str	r3, [sp, #144]	@ 0x90
10002062:	2380      	movs	r3, #128	@ 0x80
10002064:	9a26      	ldr	r2, [sp, #152]	@ 0x98
10002066:	011b      	lsls	r3, r3, #4
10002068:	401a      	ands	r2, r3
1000206a:	003b      	movs	r3, r7
1000206c:	4693      	mov	fp, r2
1000206e:	9609      	str	r6, [sp, #36]	@ 0x24
10002070:	4333      	orrs	r3, r6
10002072:	d000      	beq.n	10002076 <_etoa+0x8e>
10002074:	e0b3      	b.n	100021de <_etoa+0x1f6>
10002076:	2a00      	cmp	r2, #0
10002078:	d000      	beq.n	1000207c <_etoa+0x94>
1000207a:	e1c2      	b.n	10002402 <_etoa+0x41a>
1000207c:	2300      	movs	r3, #0
1000207e:	2400      	movs	r4, #0
10002080:	930a      	str	r3, [sp, #40]	@ 0x28
10002082:	940b      	str	r4, [sp, #44]	@ 0x2c
10002084:	2300      	movs	r3, #0
10002086:	2504      	movs	r5, #4
10002088:	9309      	str	r3, [sp, #36]	@ 0x24
1000208a:	9b25      	ldr	r3, [sp, #148]	@ 0x94
1000208c:	2400      	movs	r4, #0
1000208e:	42ab      	cmp	r3, r5
10002090:	d900      	bls.n	10002094 <_etoa+0xac>
10002092:	1b5c      	subs	r4, r3, r5
10002094:	2302      	movs	r3, #2
10002096:	9a26      	ldr	r2, [sp, #152]	@ 0x98
10002098:	401a      	ands	r2, r3
1000209a:	920c      	str	r2, [sp, #48]	@ 0x30
1000209c:	9a26      	ldr	r2, [sp, #152]	@ 0x98
1000209e:	4213      	tst	r3, r2
100020a0:	d003      	beq.n	100020aa <_etoa+0xc2>
100020a2:	426b      	negs	r3, r5
100020a4:	416b      	adcs	r3, r5
100020a6:	425b      	negs	r3, r3
100020a8:	401c      	ands	r4, r3
100020aa:	9b09      	ldr	r3, [sp, #36]	@ 0x24
100020ac:	2b00      	cmp	r3, #0
100020ae:	d007      	beq.n	100020c0 <_etoa+0xd8>
100020b0:	9a0a      	ldr	r2, [sp, #40]	@ 0x28
100020b2:	9b0b      	ldr	r3, [sp, #44]	@ 0x2c
100020b4:	0030      	movs	r0, r6
100020b6:	0039      	movs	r1, r7
100020b8:	f7ff fc7d 	bl	100019b6 <__wrap___aeabi_ddiv>
100020bc:	0006      	movs	r6, r0
100020be:	000f      	movs	r7, r1
100020c0:	9822      	ldr	r0, [sp, #136]	@ 0x88
100020c2:	9923      	ldr	r1, [sp, #140]	@ 0x8c
100020c4:	2200      	movs	r2, #0
100020c6:	2300      	movs	r3, #0
100020c8:	f7ff fcce 	bl	10001a68 <__wrap___aeabi_dcmplt>
100020cc:	2800      	cmp	r0, #0
100020ce:	d003      	beq.n	100020d8 <_etoa+0xf0>
100020d0:	2180      	movs	r1, #128	@ 0x80
100020d2:	0609      	lsls	r1, r1, #24
100020d4:	187b      	adds	r3, r7, r1
100020d6:	001f      	movs	r7, r3
100020d8:	9a26      	ldr	r2, [sp, #152]	@ 0x98
100020da:	4baa      	ldr	r3, [pc, #680]	@ (10002384 <_etoa+0x39c>)
100020dc:	9600      	str	r6, [sp, #0]
100020de:	9701      	str	r7, [sp, #4]
100020e0:	4013      	ands	r3, r2
100020e2:	9e08      	ldr	r6, [sp, #32]
100020e4:	9304      	str	r3, [sp, #16]
100020e6:	9b24      	ldr	r3, [sp, #144]	@ 0x90
100020e8:	9403      	str	r4, [sp, #12]
100020ea:	9302      	str	r3, [sp, #8]
100020ec:	4642      	mov	r2, r8
100020ee:	0033      	movs	r3, r6
100020f0:	4649      	mov	r1, r9
100020f2:	4650      	mov	r0, sl
100020f4:	f000 f9aa 	bl	1000244c <_ftoa>
100020f8:	0004      	movs	r4, r0
100020fa:	2d00      	cmp	r5, #0
100020fc:	d067      	beq.n	100021ce <_etoa+0x1e6>
100020fe:	2020      	movs	r0, #32
10002100:	9a26      	ldr	r2, [sp, #152]	@ 0x98
10002102:	4649      	mov	r1, r9
10002104:	4002      	ands	r2, r0
10002106:	0013      	movs	r3, r2
10002108:	425a      	negs	r2, r3
1000210a:	4153      	adcs	r3, r2
1000210c:	425b      	negs	r3, r3
1000210e:	1c62      	adds	r2, r4, #1
10002110:	4018      	ands	r0, r3
10002112:	920a      	str	r2, [sp, #40]	@ 0x28
10002114:	0033      	movs	r3, r6
10002116:	0022      	movs	r2, r4
10002118:	3045      	adds	r0, #69	@ 0x45
1000211a:	47d0      	blx	sl
1000211c:	9a09      	ldr	r2, [sp, #36]	@ 0x24
1000211e:	1e6f      	subs	r7, r5, #1
10002120:	17d3      	asrs	r3, r2, #31
10002122:	18d4      	adds	r4, r2, r3
10002124:	405c      	eors	r4, r3
10002126:	0fd3      	lsrs	r3, r2, #31
10002128:	469b      	mov	fp, r3
1000212a:	2500      	movs	r5, #0
1000212c:	e001      	b.n	10002132 <_etoa+0x14a>
1000212e:	2d20      	cmp	r5, #32
10002130:	d013      	beq.n	1000215a <_etoa+0x172>
10002132:	aa08      	add	r2, sp, #32
10002134:	4694      	mov	ip, r2
10002136:	231f      	movs	r3, #31
10002138:	0020      	movs	r0, r4
1000213a:	4463      	add	r3, ip
1000213c:	210a      	movs	r1, #10
1000213e:	3501      	adds	r5, #1
10002140:	195e      	adds	r6, r3, r5
10002142:	f7ff f9f3 	bl	1000152c <__wrap___aeabi_uidiv>
10002146:	3130      	adds	r1, #48	@ 0x30
10002148:	7031      	strb	r1, [r6, #0]
1000214a:	0020      	movs	r0, r4
1000214c:	210a      	movs	r1, #10
1000214e:	f7ff f9ed 	bl	1000152c <__wrap___aeabi_uidiv>
10002152:	0026      	movs	r6, r4
10002154:	0004      	movs	r4, r0
10002156:	2e09      	cmp	r6, #9
10002158:	d8e9      	bhi.n	1000212e <_etoa+0x146>
1000215a:	2305      	movs	r3, #5
1000215c:	9306      	str	r3, [sp, #24]
1000215e:	2300      	movs	r3, #0
10002160:	9304      	str	r3, [sp, #16]
10002162:	330a      	adds	r3, #10
10002164:	9303      	str	r3, [sp, #12]
10002166:	465b      	mov	r3, fp
10002168:	9e08      	ldr	r6, [sp, #32]
1000216a:	9302      	str	r3, [sp, #8]
1000216c:	ab10      	add	r3, sp, #64	@ 0x40
1000216e:	9a0a      	ldr	r2, [sp, #40]	@ 0x28
10002170:	9300      	str	r3, [sp, #0]
10002172:	4649      	mov	r1, r9
10002174:	0033      	movs	r3, r6
10002176:	4650      	mov	r0, sl
10002178:	9705      	str	r7, [sp, #20]
1000217a:	9501      	str	r5, [sp, #4]
1000217c:	f7ff fdfc 	bl	10001d78 <_ntoa_format>
10002180:	9a0c      	ldr	r2, [sp, #48]	@ 0x30
10002182:	0004      	movs	r4, r0
10002184:	2a00      	cmp	r2, #0
10002186:	d022      	beq.n	100021ce <_etoa+0x1e6>
10002188:	4642      	mov	r2, r8
1000218a:	1a85      	subs	r5, r0, r2
1000218c:	9a25      	ldr	r2, [sp, #148]	@ 0x94
1000218e:	42aa      	cmp	r2, r5
10002190:	d91d      	bls.n	100021ce <_etoa+0x1e6>
10002192:	46b0      	mov	r8, r6
10002194:	4657      	mov	r7, sl
10002196:	0016      	movs	r6, r2
10002198:	0022      	movs	r2, r4
1000219a:	4643      	mov	r3, r8
1000219c:	4649      	mov	r1, r9
1000219e:	2020      	movs	r0, #32
100021a0:	3501      	adds	r5, #1
100021a2:	47b8      	blx	r7
100021a4:	3401      	adds	r4, #1
100021a6:	42ae      	cmp	r6, r5
100021a8:	d8f6      	bhi.n	10002198 <_etoa+0x1b0>
100021aa:	e010      	b.n	100021ce <_etoa+0x1e6>
100021ac:	9b26      	ldr	r3, [sp, #152]	@ 0x98
100021ae:	4642      	mov	r2, r8
100021b0:	9304      	str	r3, [sp, #16]
100021b2:	9b25      	ldr	r3, [sp, #148]	@ 0x94
100021b4:	4649      	mov	r1, r9
100021b6:	9303      	str	r3, [sp, #12]
100021b8:	9b24      	ldr	r3, [sp, #144]	@ 0x90
100021ba:	4650      	mov	r0, sl
100021bc:	9302      	str	r3, [sp, #8]
100021be:	9b22      	ldr	r3, [sp, #136]	@ 0x88
100021c0:	9c23      	ldr	r4, [sp, #140]	@ 0x8c
100021c2:	9300      	str	r3, [sp, #0]
100021c4:	9401      	str	r4, [sp, #4]
100021c6:	9b08      	ldr	r3, [sp, #32]
100021c8:	f000 f940 	bl	1000244c <_ftoa>
100021cc:	0004      	movs	r4, r0
100021ce:	0020      	movs	r0, r4
100021d0:	b019      	add	sp, #100	@ 0x64
100021d2:	bcf0      	pop	{r4, r5, r6, r7}
100021d4:	46bb      	mov	fp, r7
100021d6:	46b2      	mov	sl, r6
100021d8:	46a9      	mov	r9, r5
100021da:	46a0      	mov	r8, r4
100021dc:	bdf0      	pop	{r4, r5, r6, r7, pc}
100021de:	4b6a      	ldr	r3, [pc, #424]	@ (10002388 <_etoa+0x3a0>)
100021e0:	0078      	lsls	r0, r7, #1
100021e2:	469c      	mov	ip, r3
100021e4:	0d40      	lsrs	r0, r0, #21
100021e6:	4460      	add	r0, ip
100021e8:	f7ff fc62 	bl	10001ab0 <__wrap___aeabi_i2d>
100021ec:	4a67      	ldr	r2, [pc, #412]	@ (1000238c <_etoa+0x3a4>)
100021ee:	4b68      	ldr	r3, [pc, #416]	@ (10002390 <_etoa+0x3a8>)
100021f0:	f7ff fbfb 	bl	100019ea <__wrap___aeabi_dmul>
100021f4:	4a67      	ldr	r2, [pc, #412]	@ (10002394 <_etoa+0x3ac>)
100021f6:	4b68      	ldr	r3, [pc, #416]	@ (10002398 <_etoa+0x3b0>)
100021f8:	f7ff fbd8 	bl	100019ac <__wrap___aeabi_dadd>
100021fc:	4a67      	ldr	r2, [pc, #412]	@ (1000239c <_etoa+0x3b4>)
100021fe:	033b      	lsls	r3, r7, #12
10002200:	0b1b      	lsrs	r3, r3, #12
10002202:	431a      	orrs	r2, r3
10002204:	0004      	movs	r4, r0
10002206:	000d      	movs	r5, r1
10002208:	9809      	ldr	r0, [sp, #36]	@ 0x24
1000220a:	0011      	movs	r1, r2
1000220c:	4b64      	ldr	r3, [pc, #400]	@ (100023a0 <_etoa+0x3b8>)
1000220e:	2200      	movs	r2, #0
10002210:	f7ff fbc7 	bl	100019a2 <__wrap___aeabi_dsub>
10002214:	4a63      	ldr	r2, [pc, #396]	@ (100023a4 <_etoa+0x3bc>)
10002216:	4b64      	ldr	r3, [pc, #400]	@ (100023a8 <_etoa+0x3c0>)
10002218:	f7ff fbe7 	bl	100019ea <__wrap___aeabi_dmul>
1000221c:	0002      	movs	r2, r0
1000221e:	000b      	movs	r3, r1
10002220:	0020      	movs	r0, r4
10002222:	0029      	movs	r1, r5
10002224:	f7ff fbc2 	bl	100019ac <__wrap___aeabi_dadd>
10002228:	f7ff fc5a 	bl	10001ae0 <__wrap___aeabi_d2iz>
1000222c:	9009      	str	r0, [sp, #36]	@ 0x24
1000222e:	f7ff fc3f 	bl	10001ab0 <__wrap___aeabi_i2d>
10002232:	4a5e      	ldr	r2, [pc, #376]	@ (100023ac <_etoa+0x3c4>)
10002234:	4b5e      	ldr	r3, [pc, #376]	@ (100023b0 <_etoa+0x3c8>)
10002236:	0004      	movs	r4, r0
10002238:	000d      	movs	r5, r1
1000223a:	f7ff fbd6 	bl	100019ea <__wrap___aeabi_dmul>
1000223e:	2200      	movs	r2, #0
10002240:	4b5c      	ldr	r3, [pc, #368]	@ (100023b4 <_etoa+0x3cc>)
10002242:	f7ff fbb3 	bl	100019ac <__wrap___aeabi_dadd>
10002246:	f7ff fc4b 	bl	10001ae0 <__wrap___aeabi_d2iz>
1000224a:	4a5b      	ldr	r2, [pc, #364]	@ (100023b8 <_etoa+0x3d0>)
1000224c:	4b5b      	ldr	r3, [pc, #364]	@ (100023bc <_etoa+0x3d4>)
1000224e:	0029      	movs	r1, r5
10002250:	900c      	str	r0, [sp, #48]	@ 0x30
10002252:	0020      	movs	r0, r4
10002254:	f7ff fbc9 	bl	100019ea <__wrap___aeabi_dmul>
10002258:	0004      	movs	r4, r0
1000225a:	980c      	ldr	r0, [sp, #48]	@ 0x30
1000225c:	000d      	movs	r5, r1
1000225e:	f7ff fc27 	bl	10001ab0 <__wrap___aeabi_i2d>
10002262:	4a57      	ldr	r2, [pc, #348]	@ (100023c0 <_etoa+0x3d8>)
10002264:	4b57      	ldr	r3, [pc, #348]	@ (100023c4 <_etoa+0x3dc>)
10002266:	f7ff fbc0 	bl	100019ea <__wrap___aeabi_dmul>
1000226a:	0002      	movs	r2, r0
1000226c:	000b      	movs	r3, r1
1000226e:	0020      	movs	r0, r4
10002270:	0029      	movs	r1, r5
10002272:	f7ff fb96 	bl	100019a2 <__wrap___aeabi_dsub>
10002276:	0004      	movs	r4, r0
10002278:	000d      	movs	r5, r1
1000227a:	0002      	movs	r2, r0
1000227c:	000b      	movs	r3, r1
1000227e:	940a      	str	r4, [sp, #40]	@ 0x28
10002280:	950b      	str	r5, [sp, #44]	@ 0x2c
10002282:	f7ff fbb2 	bl	100019ea <__wrap___aeabi_dmul>
10002286:	0004      	movs	r4, r0
10002288:	000d      	movs	r5, r1
1000228a:	980a      	ldr	r0, [sp, #40]	@ 0x28
1000228c:	990b      	ldr	r1, [sp, #44]	@ 0x2c
1000228e:	0002      	movs	r2, r0
10002290:	000b      	movs	r3, r1
10002292:	f7ff fb8b 	bl	100019ac <__wrap___aeabi_dadd>
10002296:	2200      	movs	r2, #0
10002298:	900e      	str	r0, [sp, #56]	@ 0x38
1000229a:	910f      	str	r1, [sp, #60]	@ 0x3c
1000229c:	4b4a      	ldr	r3, [pc, #296]	@ (100023c8 <_etoa+0x3e0>)
1000229e:	0020      	movs	r0, r4
100022a0:	0029      	movs	r1, r5
100022a2:	f7ff fb88 	bl	100019b6 <__wrap___aeabi_ddiv>
100022a6:	2200      	movs	r2, #0
100022a8:	4b48      	ldr	r3, [pc, #288]	@ (100023cc <_etoa+0x3e4>)
100022aa:	f7ff fb7f 	bl	100019ac <__wrap___aeabi_dadd>
100022ae:	0002      	movs	r2, r0
100022b0:	000b      	movs	r3, r1
100022b2:	0020      	movs	r0, r4
100022b4:	0029      	movs	r1, r5
100022b6:	f7ff fb7e 	bl	100019b6 <__wrap___aeabi_ddiv>
100022ba:	2200      	movs	r2, #0
100022bc:	4b44      	ldr	r3, [pc, #272]	@ (100023d0 <_etoa+0x3e8>)
100022be:	f7ff fb75 	bl	100019ac <__wrap___aeabi_dadd>
100022c2:	0002      	movs	r2, r0
100022c4:	000b      	movs	r3, r1
100022c6:	0020      	movs	r0, r4
100022c8:	0029      	movs	r1, r5
100022ca:	f7ff fb74 	bl	100019b6 <__wrap___aeabi_ddiv>
100022ce:	9a0a      	ldr	r2, [sp, #40]	@ 0x28
100022d0:	9b0b      	ldr	r3, [sp, #44]	@ 0x2c
100022d2:	000d      	movs	r5, r1
100022d4:	2180      	movs	r1, #128	@ 0x80
100022d6:	0004      	movs	r4, r0
100022d8:	05c9      	lsls	r1, r1, #23
100022da:	2000      	movs	r0, #0
100022dc:	f7ff fb61 	bl	100019a2 <__wrap___aeabi_dsub>
100022e0:	0002      	movs	r2, r0
100022e2:	000b      	movs	r3, r1
100022e4:	0020      	movs	r0, r4
100022e6:	0029      	movs	r1, r5
100022e8:	f7ff fb60 	bl	100019ac <__wrap___aeabi_dadd>
100022ec:	0002      	movs	r2, r0
100022ee:	000b      	movs	r3, r1
100022f0:	980e      	ldr	r0, [sp, #56]	@ 0x38
100022f2:	990f      	ldr	r1, [sp, #60]	@ 0x3c
100022f4:	f7ff fb5f 	bl	100019b6 <__wrap___aeabi_ddiv>
100022f8:	2200      	movs	r2, #0
100022fa:	4b28      	ldr	r3, [pc, #160]	@ (1000239c <_etoa+0x3b4>)
100022fc:	f7ff fb56 	bl	100019ac <__wrap___aeabi_dadd>
10002300:	4b34      	ldr	r3, [pc, #208]	@ (100023d4 <_etoa+0x3ec>)
10002302:	9c0c      	ldr	r4, [sp, #48]	@ 0x30
10002304:	469c      	mov	ip, r3
10002306:	4464      	add	r4, ip
10002308:	0523      	lsls	r3, r4, #20
1000230a:	2200      	movs	r2, #0
1000230c:	f7ff fb6d 	bl	100019ea <__wrap___aeabi_dmul>
10002310:	0004      	movs	r4, r0
10002312:	000d      	movs	r5, r1
10002314:	0002      	movs	r2, r0
10002316:	000b      	movs	r3, r1
10002318:	0030      	movs	r0, r6
1000231a:	0039      	movs	r1, r7
1000231c:	940a      	str	r4, [sp, #40]	@ 0x28
1000231e:	950b      	str	r5, [sp, #44]	@ 0x2c
10002320:	f7ff fba2 	bl	10001a68 <__wrap___aeabi_dcmplt>
10002324:	2800      	cmp	r0, #0
10002326:	d15d      	bne.n	100023e4 <_etoa+0x3fc>
10002328:	0023      	movs	r3, r4
1000232a:	002a      	movs	r2, r5
1000232c:	25c6      	movs	r5, #198	@ 0xc6
1000232e:	9909      	ldr	r1, [sp, #36]	@ 0x24
10002330:	3163      	adds	r1, #99	@ 0x63
10002332:	428d      	cmp	r5, r1
10002334:	41ad      	sbcs	r5, r5
10002336:	4659      	mov	r1, fp
10002338:	426d      	negs	r5, r5
1000233a:	3504      	adds	r5, #4
1000233c:	2900      	cmp	r1, #0
1000233e:	d100      	bne.n	10002342 <_etoa+0x35a>
10002340:	e6a3      	b.n	1000208a <_etoa+0xa2>
10002342:	4313      	orrs	r3, r2
10002344:	d063      	beq.n	1000240e <_etoa+0x426>
10002346:	0030      	movs	r0, r6
10002348:	0039      	movs	r1, r7
1000234a:	4a23      	ldr	r2, [pc, #140]	@ (100023d8 <_etoa+0x3f0>)
1000234c:	4b23      	ldr	r3, [pc, #140]	@ (100023dc <_etoa+0x3f4>)
1000234e:	f7ff fb91 	bl	10001a74 <__wrap___aeabi_dcmpge>
10002352:	2800      	cmp	r0, #0
10002354:	d007      	beq.n	10002366 <_etoa+0x37e>
10002356:	2200      	movs	r2, #0
10002358:	0030      	movs	r0, r6
1000235a:	0039      	movs	r1, r7
1000235c:	4b20      	ldr	r3, [pc, #128]	@ (100023e0 <_etoa+0x3f8>)
1000235e:	f7ff fb83 	bl	10001a68 <__wrap___aeabi_dcmplt>
10002362:	2800      	cmp	r0, #0
10002364:	d153      	bne.n	1000240e <_etoa+0x426>
10002366:	9b24      	ldr	r3, [sp, #144]	@ 0x90
10002368:	2b00      	cmp	r3, #0
1000236a:	d100      	bne.n	1000236e <_etoa+0x386>
1000236c:	e68d      	b.n	1000208a <_etoa+0xa2>
1000236e:	9b0d      	ldr	r3, [sp, #52]	@ 0x34
10002370:	1e5a      	subs	r2, r3, #1
10002372:	4193      	sbcs	r3, r2
10002374:	9a24      	ldr	r2, [sp, #144]	@ 0x90
10002376:	1ad3      	subs	r3, r2, r3
10002378:	9324      	str	r3, [sp, #144]	@ 0x90
1000237a:	e686      	b.n	1000208a <_etoa+0xa2>
1000237c:	7fefffff 	.word	0x7fefffff
10002380:	ffefffff 	.word	0xffefffff
10002384:	fffff7ff 	.word	0xfffff7ff
10002388:	fffffc01 	.word	0xfffffc01
1000238c:	509f79fb 	.word	0x509f79fb
10002390:	3fd34413 	.word	0x3fd34413
10002394:	8b60c8b3 	.word	0x8b60c8b3
10002398:	3fc68a28 	.word	0x3fc68a28
1000239c:	3ff00000 	.word	0x3ff00000
100023a0:	3ff80000 	.word	0x3ff80000
100023a4:	636f4361 	.word	0x636f4361
100023a8:	3fd287a7 	.word	0x3fd287a7
100023ac:	0979a371 	.word	0x0979a371
100023b0:	400a934f 	.word	0x400a934f
100023b4:	3fe00000 	.word	0x3fe00000
100023b8:	bbb55516 	.word	0xbbb55516
100023bc:	40026bb1 	.word	0x40026bb1
100023c0:	fefa39ef 	.word	0xfefa39ef
100023c4:	3fe62e42 	.word	0x3fe62e42
100023c8:	402c0000 	.word	0x402c0000
100023cc:	40240000 	.word	0x40240000
100023d0:	40180000 	.word	0x40180000
100023d4:	000003ff 	.word	0x000003ff
100023d8:	eb1c432d 	.word	0xeb1c432d
100023dc:	3f1a36e2 	.word	0x3f1a36e2
100023e0:	412e8480 	.word	0x412e8480
100023e4:	9b09      	ldr	r3, [sp, #36]	@ 0x24
100023e6:	2200      	movs	r2, #0
100023e8:	3b01      	subs	r3, #1
100023ea:	9309      	str	r3, [sp, #36]	@ 0x24
100023ec:	0020      	movs	r0, r4
100023ee:	4b16      	ldr	r3, [pc, #88]	@ (10002448 <_etoa+0x460>)
100023f0:	0029      	movs	r1, r5
100023f2:	f7ff fae0 	bl	100019b6 <__wrap___aeabi_ddiv>
100023f6:	000a      	movs	r2, r1
100023f8:	0001      	movs	r1, r0
100023fa:	0003      	movs	r3, r0
100023fc:	910a      	str	r1, [sp, #40]	@ 0x28
100023fe:	920b      	str	r2, [sp, #44]	@ 0x2c
10002400:	e794      	b.n	1000232c <_etoa+0x344>
10002402:	2300      	movs	r3, #0
10002404:	2400      	movs	r4, #0
10002406:	930a      	str	r3, [sp, #40]	@ 0x28
10002408:	940b      	str	r4, [sp, #44]	@ 0x2c
1000240a:	2300      	movs	r3, #0
1000240c:	9309      	str	r3, [sp, #36]	@ 0x24
1000240e:	9a24      	ldr	r2, [sp, #144]	@ 0x90
10002410:	9b09      	ldr	r3, [sp, #36]	@ 0x24
10002412:	429a      	cmp	r2, r3
10002414:	dd14      	ble.n	10002440 <_etoa+0x458>
10002416:	1ad3      	subs	r3, r2, r3
10002418:	3b01      	subs	r3, #1
1000241a:	9324      	str	r3, [sp, #144]	@ 0x90
1000241c:	2380      	movs	r3, #128	@ 0x80
1000241e:	9a26      	ldr	r2, [sp, #152]	@ 0x98
10002420:	00db      	lsls	r3, r3, #3
10002422:	431a      	orrs	r2, r3
10002424:	2300      	movs	r3, #0
10002426:	2500      	movs	r5, #0
10002428:	9226      	str	r2, [sp, #152]	@ 0x98
1000242a:	9309      	str	r3, [sp, #36]	@ 0x24
1000242c:	e62d      	b.n	1000208a <_etoa+0xa2>
1000242e:	2280      	movs	r2, #128	@ 0x80
10002430:	0612      	lsls	r2, r2, #24
10002432:	4694      	mov	ip, r2
10002434:	9b22      	ldr	r3, [sp, #136]	@ 0x88
10002436:	001e      	movs	r6, r3
10002438:	9b23      	ldr	r3, [sp, #140]	@ 0x8c
1000243a:	4463      	add	r3, ip
1000243c:	001f      	movs	r7, r3
1000243e:	e606      	b.n	1000204e <_etoa+0x66>
10002440:	2300      	movs	r3, #0
10002442:	9324      	str	r3, [sp, #144]	@ 0x90
10002444:	e7ea      	b.n	1000241c <_etoa+0x434>
10002446:	46c0      	nop			@ (mov r8, r8)
10002448:	40240000 	.word	0x40240000

1000244c <_ftoa>:
1000244c:	b5f0      	push	{r4, r5, r6, r7, lr}
1000244e:	4645      	mov	r5, r8
10002450:	46de      	mov	lr, fp
10002452:	464e      	mov	r6, r9
10002454:	4657      	mov	r7, sl
10002456:	b5e0      	push	{r5, r6, r7, lr}
10002458:	b095      	sub	sp, #84	@ 0x54
1000245a:	468b      	mov	fp, r1
1000245c:	4690      	mov	r8, r2
1000245e:	4699      	mov	r9, r3
10002460:	9a1e      	ldr	r2, [sp, #120]	@ 0x78
10002462:	9b1f      	ldr	r3, [sp, #124]	@ 0x7c
10002464:	900a      	str	r0, [sp, #40]	@ 0x28
10002466:	0019      	movs	r1, r3
10002468:	0010      	movs	r0, r2
1000246a:	9d20      	ldr	r5, [sp, #128]	@ 0x80
1000246c:	f7ff fb0f 	bl	10001a8e <__wrap___aeabi_dcmpun>
10002470:	2800      	cmp	r0, #0
10002472:	d000      	beq.n	10002476 <_ftoa+0x2a>
10002474:	e1b0      	b.n	100027d8 <_ftoa+0x38c>
10002476:	981e      	ldr	r0, [sp, #120]	@ 0x78
10002478:	991f      	ldr	r1, [sp, #124]	@ 0x7c
1000247a:	2201      	movs	r2, #1
1000247c:	4bc7      	ldr	r3, [pc, #796]	@ (1000279c <_ftoa+0x350>)
1000247e:	4252      	negs	r2, r2
10002480:	f7ff faf2 	bl	10001a68 <__wrap___aeabi_dcmplt>
10002484:	2800      	cmp	r0, #0
10002486:	d000      	beq.n	1000248a <_ftoa+0x3e>
10002488:	e137      	b.n	100026fa <_ftoa+0x2ae>
1000248a:	981e      	ldr	r0, [sp, #120]	@ 0x78
1000248c:	991f      	ldr	r1, [sp, #124]	@ 0x7c
1000248e:	2201      	movs	r2, #1
10002490:	4bc3      	ldr	r3, [pc, #780]	@ (100027a0 <_ftoa+0x354>)
10002492:	4252      	negs	r2, r2
10002494:	f7ff faf6 	bl	10001a84 <__wrap___aeabi_dcmpgt>
10002498:	2800      	cmp	r0, #0
1000249a:	d000      	beq.n	1000249e <_ftoa+0x52>
1000249c:	e0a7      	b.n	100025ee <_ftoa+0x1a2>
1000249e:	981e      	ldr	r0, [sp, #120]	@ 0x78
100024a0:	991f      	ldr	r1, [sp, #124]	@ 0x7c
100024a2:	2200      	movs	r2, #0
100024a4:	4bbf      	ldr	r3, [pc, #764]	@ (100027a4 <_ftoa+0x358>)
100024a6:	f7ff faed 	bl	10001a84 <__wrap___aeabi_dcmpgt>
100024aa:	2800      	cmp	r0, #0
100024ac:	d000      	beq.n	100024b0 <_ftoa+0x64>
100024ae:	e088      	b.n	100025c2 <_ftoa+0x176>
100024b0:	981e      	ldr	r0, [sp, #120]	@ 0x78
100024b2:	991f      	ldr	r1, [sp, #124]	@ 0x7c
100024b4:	2200      	movs	r2, #0
100024b6:	4bbc      	ldr	r3, [pc, #752]	@ (100027a8 <_ftoa+0x35c>)
100024b8:	f7ff fad6 	bl	10001a68 <__wrap___aeabi_dcmplt>
100024bc:	2800      	cmp	r0, #0
100024be:	d000      	beq.n	100024c2 <_ftoa+0x76>
100024c0:	e07f      	b.n	100025c2 <_ftoa+0x176>
100024c2:	981e      	ldr	r0, [sp, #120]	@ 0x78
100024c4:	991f      	ldr	r1, [sp, #124]	@ 0x7c
100024c6:	2200      	movs	r2, #0
100024c8:	2300      	movs	r3, #0
100024ca:	f7ff facd 	bl	10001a68 <__wrap___aeabi_dcmplt>
100024ce:	2800      	cmp	r0, #0
100024d0:	d000      	beq.n	100024d4 <_ftoa+0x88>
100024d2:	e0fa      	b.n	100026ca <_ftoa+0x27e>
100024d4:	2300      	movs	r3, #0
100024d6:	930b      	str	r3, [sp, #44]	@ 0x2c
100024d8:	2380      	movs	r3, #128	@ 0x80
100024da:	9c22      	ldr	r4, [sp, #136]	@ 0x88
100024dc:	9a22      	ldr	r2, [sp, #136]	@ 0x88
100024de:	00db      	lsls	r3, r3, #3
100024e0:	401c      	ands	r4, r3
100024e2:	421a      	tst	r2, r3
100024e4:	d100      	bne.n	100024e8 <_ftoa+0x9c>
100024e6:	e102      	b.n	100026ee <_ftoa+0x2a2>
100024e8:	2d09      	cmp	r5, #9
100024ea:	d800      	bhi.n	100024ee <_ftoa+0xa2>
100024ec:	e17c      	b.n	100027e8 <_ftoa+0x39c>
100024ee:	a906      	add	r1, sp, #24
100024f0:	468c      	mov	ip, r1
100024f2:	002c      	movs	r4, r5
100024f4:	2217      	movs	r2, #23
100024f6:	2300      	movs	r3, #0
100024f8:	2130      	movs	r1, #48	@ 0x30
100024fa:	3c09      	subs	r4, #9
100024fc:	4462      	add	r2, ip
100024fe:	3301      	adds	r3, #1
10002500:	54d1      	strb	r1, [r2, r3]
10002502:	1aef      	subs	r7, r5, r3
10002504:	2b20      	cmp	r3, #32
10002506:	d100      	bne.n	1000250a <_ftoa+0xbe>
10002508:	e132      	b.n	10002770 <_ftoa+0x324>
1000250a:	42a3      	cmp	r3, r4
1000250c:	d1f7      	bne.n	100024fe <_ftoa+0xb2>
1000250e:	2200      	movs	r2, #0
10002510:	4ba4      	ldr	r3, [pc, #656]	@ (100027a4 <_ftoa+0x358>)
10002512:	9206      	str	r2, [sp, #24]
10002514:	9307      	str	r3, [sp, #28]
10002516:	981e      	ldr	r0, [sp, #120]	@ 0x78
10002518:	991f      	ldr	r1, [sp, #124]	@ 0x7c
1000251a:	f7ff fae1 	bl	10001ae0 <__wrap___aeabi_d2iz>
1000251e:	0005      	movs	r5, r0
10002520:	f7ff fac6 	bl	10001ab0 <__wrap___aeabi_i2d>
10002524:	0002      	movs	r2, r0
10002526:	000b      	movs	r3, r1
10002528:	981e      	ldr	r0, [sp, #120]	@ 0x78
1000252a:	991f      	ldr	r1, [sp, #124]	@ 0x7c
1000252c:	f7ff fa39 	bl	100019a2 <__wrap___aeabi_dsub>
10002530:	9a06      	ldr	r2, [sp, #24]
10002532:	9b07      	ldr	r3, [sp, #28]
10002534:	f7ff fa59 	bl	100019ea <__wrap___aeabi_dmul>
10002538:	9008      	str	r0, [sp, #32]
1000253a:	9109      	str	r1, [sp, #36]	@ 0x24
1000253c:	f7ff faf4 	bl	10001b28 <__wrap___aeabi_d2uiz>
10002540:	0006      	movs	r6, r0
10002542:	f7ff fab1 	bl	10001aa8 <__wrap___aeabi_ui2d>
10002546:	0002      	movs	r2, r0
10002548:	000b      	movs	r3, r1
1000254a:	9808      	ldr	r0, [sp, #32]
1000254c:	9909      	ldr	r1, [sp, #36]	@ 0x24
1000254e:	f7ff fa28 	bl	100019a2 <__wrap___aeabi_dsub>
10002552:	2200      	movs	r2, #0
10002554:	4b95      	ldr	r3, [pc, #596]	@ (100027ac <_ftoa+0x360>)
10002556:	9008      	str	r0, [sp, #32]
10002558:	9109      	str	r1, [sp, #36]	@ 0x24
1000255a:	f7ff fa93 	bl	10001a84 <__wrap___aeabi_dcmpgt>
1000255e:	2800      	cmp	r0, #0
10002560:	d100      	bne.n	10002564 <_ftoa+0x118>
10002562:	e0d2      	b.n	1000270a <_ftoa+0x2be>
10002564:	3601      	adds	r6, #1
10002566:	0030      	movs	r0, r6
10002568:	f7ff fa9e 	bl	10001aa8 <__wrap___aeabi_ui2d>
1000256c:	9a06      	ldr	r2, [sp, #24]
1000256e:	9b07      	ldr	r3, [sp, #28]
10002570:	f7ff fa80 	bl	10001a74 <__wrap___aeabi_dcmpge>
10002574:	2800      	cmp	r0, #0
10002576:	d001      	beq.n	1000257c <_ftoa+0x130>
10002578:	2600      	movs	r6, #0
1000257a:	3501      	adds	r5, #1
1000257c:	46aa      	mov	sl, r5
1000257e:	2f00      	cmp	r7, #0
10002580:	d000      	beq.n	10002584 <_ftoa+0x138>
10002582:	e098      	b.n	100026b6 <_ftoa+0x26a>
10002584:	0028      	movs	r0, r5
10002586:	f7ff fa93 	bl	10001ab0 <__wrap___aeabi_i2d>
1000258a:	0002      	movs	r2, r0
1000258c:	000b      	movs	r3, r1
1000258e:	981e      	ldr	r0, [sp, #120]	@ 0x78
10002590:	991f      	ldr	r1, [sp, #124]	@ 0x7c
10002592:	f7ff fa06 	bl	100019a2 <__wrap___aeabi_dsub>
10002596:	4b85      	ldr	r3, [pc, #532]	@ (100027ac <_ftoa+0x360>)
10002598:	2200      	movs	r2, #0
1000259a:	0006      	movs	r6, r0
1000259c:	000f      	movs	r7, r1
1000259e:	f7ff fa63 	bl	10001a68 <__wrap___aeabi_dcmplt>
100025a2:	ab0c      	add	r3, sp, #48	@ 0x30
100025a4:	469a      	mov	sl, r3
100025a6:	2800      	cmp	r0, #0
100025a8:	d145      	bne.n	10002636 <_ftoa+0x1ea>
100025aa:	2200      	movs	r2, #0
100025ac:	0030      	movs	r0, r6
100025ae:	0039      	movs	r1, r7
100025b0:	4b7e      	ldr	r3, [pc, #504]	@ (100027ac <_ftoa+0x360>)
100025b2:	f7ff fa67 	bl	10001a84 <__wrap___aeabi_dcmpgt>
100025b6:	2800      	cmp	r0, #0
100025b8:	d13d      	bne.n	10002636 <_ftoa+0x1ea>
100025ba:	07eb      	lsls	r3, r5, #31
100025bc:	d53b      	bpl.n	10002636 <_ftoa+0x1ea>
100025be:	3501      	adds	r5, #1
100025c0:	e039      	b.n	10002636 <_ftoa+0x1ea>
100025c2:	9b22      	ldr	r3, [sp, #136]	@ 0x88
100025c4:	4642      	mov	r2, r8
100025c6:	9304      	str	r3, [sp, #16]
100025c8:	9b21      	ldr	r3, [sp, #132]	@ 0x84
100025ca:	4659      	mov	r1, fp
100025cc:	9303      	str	r3, [sp, #12]
100025ce:	980a      	ldr	r0, [sp, #40]	@ 0x28
100025d0:	9b1e      	ldr	r3, [sp, #120]	@ 0x78
100025d2:	9c1f      	ldr	r4, [sp, #124]	@ 0x7c
100025d4:	9502      	str	r5, [sp, #8]
100025d6:	9300      	str	r3, [sp, #0]
100025d8:	9401      	str	r4, [sp, #4]
100025da:	464b      	mov	r3, r9
100025dc:	f7ff fd04 	bl	10001fe8 <_etoa>
100025e0:	b015      	add	sp, #84	@ 0x54
100025e2:	bcf0      	pop	{r4, r5, r6, r7}
100025e4:	46bb      	mov	fp, r7
100025e6:	46b2      	mov	sl, r6
100025e8:	46a9      	mov	r9, r5
100025ea:	46a0      	mov	r8, r4
100025ec:	bdf0      	pop	{r4, r5, r6, r7, pc}
100025ee:	9b22      	ldr	r3, [sp, #136]	@ 0x88
100025f0:	075b      	lsls	r3, r3, #29
100025f2:	d467      	bmi.n	100026c4 <_ftoa+0x278>
100025f4:	2203      	movs	r2, #3
100025f6:	4b6e      	ldr	r3, [pc, #440]	@ (100027b0 <_ftoa+0x364>)
100025f8:	9922      	ldr	r1, [sp, #136]	@ 0x88
100025fa:	9201      	str	r2, [sp, #4]
100025fc:	9103      	str	r1, [sp, #12]
100025fe:	9921      	ldr	r1, [sp, #132]	@ 0x84
10002600:	9102      	str	r1, [sp, #8]
10002602:	9300      	str	r3, [sp, #0]
10002604:	4642      	mov	r2, r8
10002606:	464b      	mov	r3, r9
10002608:	4659      	mov	r1, fp
1000260a:	980a      	ldr	r0, [sp, #40]	@ 0x28
1000260c:	f7ff fb5e 	bl	10001ccc <_out_rev>
10002610:	e7e6      	b.n	100025e0 <_ftoa+0x194>
10002612:	aa06      	add	r2, sp, #24
10002614:	4694      	mov	ip, r2
10002616:	2317      	movs	r3, #23
10002618:	0028      	movs	r0, r5
1000261a:	4463      	add	r3, ip
1000261c:	210a      	movs	r1, #10
1000261e:	3401      	adds	r4, #1
10002620:	191e      	adds	r6, r3, r4
10002622:	f7fe ff5b 	bl	100014dc <__wrap___aeabi_idiv>
10002626:	3130      	adds	r1, #48	@ 0x30
10002628:	0028      	movs	r0, r5
1000262a:	7031      	strb	r1, [r6, #0]
1000262c:	210a      	movs	r1, #10
1000262e:	f7fe ff55 	bl	100014dc <__wrap___aeabi_idiv>
10002632:	1e05      	subs	r5, r0, #0
10002634:	d076      	beq.n	10002724 <_ftoa+0x2d8>
10002636:	2c20      	cmp	r4, #32
10002638:	d1eb      	bne.n	10002612 <_ftoa+0x1c6>
1000263a:	2303      	movs	r3, #3
1000263c:	9a22      	ldr	r2, [sp, #136]	@ 0x88
1000263e:	4013      	ands	r3, r2
10002640:	2b01      	cmp	r3, #1
10002642:	d11d      	bne.n	10002680 <_ftoa+0x234>
10002644:	9b21      	ldr	r3, [sp, #132]	@ 0x84
10002646:	2b00      	cmp	r3, #0
10002648:	d01a      	beq.n	10002680 <_ftoa+0x234>
1000264a:	9b0b      	ldr	r3, [sp, #44]	@ 0x2c
1000264c:	2b00      	cmp	r3, #0
1000264e:	d000      	beq.n	10002652 <_ftoa+0x206>
10002650:	e0bb      	b.n	100027ca <_ftoa+0x37e>
10002652:	9a22      	ldr	r2, [sp, #136]	@ 0x88
10002654:	330c      	adds	r3, #12
10002656:	4213      	tst	r3, r2
10002658:	d000      	beq.n	1000265c <_ftoa+0x210>
1000265a:	e0b6      	b.n	100027ca <_ftoa+0x37e>
1000265c:	9b21      	ldr	r3, [sp, #132]	@ 0x84
1000265e:	42a3      	cmp	r3, r4
10002660:	d800      	bhi.n	10002664 <_ftoa+0x218>
10002662:	e087      	b.n	10002774 <_ftoa+0x328>
10002664:	ab06      	add	r3, sp, #24
10002666:	469c      	mov	ip, r3
10002668:	2217      	movs	r2, #23
1000266a:	2330      	movs	r3, #48	@ 0x30
1000266c:	4462      	add	r2, ip
1000266e:	e004      	b.n	1000267a <_ftoa+0x22e>
10002670:	9921      	ldr	r1, [sp, #132]	@ 0x84
10002672:	3401      	adds	r4, #1
10002674:	5513      	strb	r3, [r2, r4]
10002676:	428c      	cmp	r4, r1
10002678:	d059      	beq.n	1000272e <_ftoa+0x2e2>
1000267a:	2c20      	cmp	r4, #32
1000267c:	d1f8      	bne.n	10002670 <_ftoa+0x224>
1000267e:	2420      	movs	r4, #32
10002680:	9b22      	ldr	r3, [sp, #136]	@ 0x88
10002682:	9401      	str	r4, [sp, #4]
10002684:	9303      	str	r3, [sp, #12]
10002686:	9b21      	ldr	r3, [sp, #132]	@ 0x84
10002688:	9302      	str	r3, [sp, #8]
1000268a:	4653      	mov	r3, sl
1000268c:	e7b9      	b.n	10002602 <_ftoa+0x1b6>
1000268e:	aa06      	add	r2, sp, #24
10002690:	4694      	mov	ip, r2
10002692:	2317      	movs	r3, #23
10002694:	210a      	movs	r1, #10
10002696:	4463      	add	r3, ip
10002698:	0030      	movs	r0, r6
1000269a:	3401      	adds	r4, #1
1000269c:	191d      	adds	r5, r3, r4
1000269e:	f7fe ff45 	bl	1000152c <__wrap___aeabi_uidiv>
100026a2:	3130      	adds	r1, #48	@ 0x30
100026a4:	7029      	strb	r1, [r5, #0]
100026a6:	0030      	movs	r0, r6
100026a8:	210a      	movs	r1, #10
100026aa:	3f01      	subs	r7, #1
100026ac:	f7fe ff3e 	bl	1000152c <__wrap___aeabi_uidiv>
100026b0:	2e09      	cmp	r6, #9
100026b2:	d946      	bls.n	10002742 <_ftoa+0x2f6>
100026b4:	0006      	movs	r6, r0
100026b6:	2c20      	cmp	r4, #32
100026b8:	d1e9      	bne.n	1000268e <_ftoa+0x242>
100026ba:	4655      	mov	r5, sl
100026bc:	ab0c      	add	r3, sp, #48	@ 0x30
100026be:	2420      	movs	r4, #32
100026c0:	469a      	mov	sl, r3
100026c2:	e7b8      	b.n	10002636 <_ftoa+0x1ea>
100026c4:	2204      	movs	r2, #4
100026c6:	4b3b      	ldr	r3, [pc, #236]	@ (100027b4 <_ftoa+0x368>)
100026c8:	e796      	b.n	100025f8 <_ftoa+0x1ac>
100026ca:	9a1e      	ldr	r2, [sp, #120]	@ 0x78
100026cc:	9b1f      	ldr	r3, [sp, #124]	@ 0x7c
100026ce:	2000      	movs	r0, #0
100026d0:	2100      	movs	r1, #0
100026d2:	f7ff f966 	bl	100019a2 <__wrap___aeabi_dsub>
100026d6:	2301      	movs	r3, #1
100026d8:	930b      	str	r3, [sp, #44]	@ 0x2c
100026da:	2380      	movs	r3, #128	@ 0x80
100026dc:	9c22      	ldr	r4, [sp, #136]	@ 0x88
100026de:	9a22      	ldr	r2, [sp, #136]	@ 0x88
100026e0:	00db      	lsls	r3, r3, #3
100026e2:	901e      	str	r0, [sp, #120]	@ 0x78
100026e4:	911f      	str	r1, [sp, #124]	@ 0x7c
100026e6:	401c      	ands	r4, r3
100026e8:	421a      	tst	r2, r3
100026ea:	d000      	beq.n	100026ee <_ftoa+0x2a2>
100026ec:	e6fc      	b.n	100024e8 <_ftoa+0x9c>
100026ee:	2200      	movs	r2, #0
100026f0:	4b31      	ldr	r3, [pc, #196]	@ (100027b8 <_ftoa+0x36c>)
100026f2:	2706      	movs	r7, #6
100026f4:	9206      	str	r2, [sp, #24]
100026f6:	9307      	str	r3, [sp, #28]
100026f8:	e70d      	b.n	10002516 <_ftoa+0xca>
100026fa:	9b22      	ldr	r3, [sp, #136]	@ 0x88
100026fc:	9303      	str	r3, [sp, #12]
100026fe:	9b21      	ldr	r3, [sp, #132]	@ 0x84
10002700:	9302      	str	r3, [sp, #8]
10002702:	2304      	movs	r3, #4
10002704:	9301      	str	r3, [sp, #4]
10002706:	4b2d      	ldr	r3, [pc, #180]	@ (100027bc <_ftoa+0x370>)
10002708:	e77b      	b.n	10002602 <_ftoa+0x1b6>
1000270a:	2200      	movs	r2, #0
1000270c:	9808      	ldr	r0, [sp, #32]
1000270e:	9909      	ldr	r1, [sp, #36]	@ 0x24
10002710:	4b26      	ldr	r3, [pc, #152]	@ (100027ac <_ftoa+0x360>)
10002712:	f7ff f9a9 	bl	10001a68 <__wrap___aeabi_dcmplt>
10002716:	2800      	cmp	r0, #0
10002718:	d000      	beq.n	1000271c <_ftoa+0x2d0>
1000271a:	e72f      	b.n	1000257c <_ftoa+0x130>
1000271c:	2e00      	cmp	r6, #0
1000271e:	d14f      	bne.n	100027c0 <_ftoa+0x374>
10002720:	3601      	adds	r6, #1
10002722:	e72b      	b.n	1000257c <_ftoa+0x130>
10002724:	2303      	movs	r3, #3
10002726:	9a22      	ldr	r2, [sp, #136]	@ 0x88
10002728:	4013      	ands	r3, r2
1000272a:	2b01      	cmp	r3, #1
1000272c:	d066      	beq.n	100027fc <_ftoa+0x3b0>
1000272e:	2c20      	cmp	r4, #32
10002730:	d0a6      	beq.n	10002680 <_ftoa+0x234>
10002732:	9b0b      	ldr	r3, [sp, #44]	@ 0x2c
10002734:	2b00      	cmp	r3, #0
10002736:	d01f      	beq.n	10002778 <_ftoa+0x32c>
10002738:	232d      	movs	r3, #45	@ 0x2d
1000273a:	4652      	mov	r2, sl
1000273c:	5513      	strb	r3, [r2, r4]
1000273e:	3401      	adds	r4, #1
10002740:	e79e      	b.n	10002680 <_ftoa+0x234>
10002742:	4655      	mov	r5, sl
10002744:	2c20      	cmp	r4, #32
10002746:	d0b9      	beq.n	100026bc <_ftoa+0x270>
10002748:	2330      	movs	r3, #48	@ 0x30
1000274a:	193a      	adds	r2, r7, r4
1000274c:	2f00      	cmp	r7, #0
1000274e:	d008      	beq.n	10002762 <_ftoa+0x316>
10002750:	2017      	movs	r0, #23
10002752:	a906      	add	r1, sp, #24
10002754:	3401      	adds	r4, #1
10002756:	1809      	adds	r1, r1, r0
10002758:	550b      	strb	r3, [r1, r4]
1000275a:	2c20      	cmp	r4, #32
1000275c:	d0ae      	beq.n	100026bc <_ftoa+0x270>
1000275e:	4294      	cmp	r4, r2
10002760:	d1f6      	bne.n	10002750 <_ftoa+0x304>
10002762:	ab0c      	add	r3, sp, #48	@ 0x30
10002764:	469a      	mov	sl, r3
10002766:	232e      	movs	r3, #46	@ 0x2e
10002768:	4652      	mov	r2, sl
1000276a:	5513      	strb	r3, [r2, r4]
1000276c:	3401      	adds	r4, #1
1000276e:	e762      	b.n	10002636 <_ftoa+0x1ea>
10002770:	2420      	movs	r4, #32
10002772:	e6cc      	b.n	1000250e <_ftoa+0xc2>
10002774:	2c20      	cmp	r4, #32
10002776:	d083      	beq.n	10002680 <_ftoa+0x234>
10002778:	9b22      	ldr	r3, [sp, #136]	@ 0x88
1000277a:	075b      	lsls	r3, r3, #29
1000277c:	d408      	bmi.n	10002790 <_ftoa+0x344>
1000277e:	9b22      	ldr	r3, [sp, #136]	@ 0x88
10002780:	071b      	lsls	r3, r3, #28
10002782:	d400      	bmi.n	10002786 <_ftoa+0x33a>
10002784:	e77c      	b.n	10002680 <_ftoa+0x234>
10002786:	2320      	movs	r3, #32
10002788:	4652      	mov	r2, sl
1000278a:	5513      	strb	r3, [r2, r4]
1000278c:	3401      	adds	r4, #1
1000278e:	e777      	b.n	10002680 <_ftoa+0x234>
10002790:	232b      	movs	r3, #43	@ 0x2b
10002792:	4652      	mov	r2, sl
10002794:	5513      	strb	r3, [r2, r4]
10002796:	3401      	adds	r4, #1
10002798:	e772      	b.n	10002680 <_ftoa+0x234>
1000279a:	46c0      	nop			@ (mov r8, r8)
1000279c:	ffefffff 	.word	0xffefffff
100027a0:	7fefffff 	.word	0x7fefffff
100027a4:	41cdcd65 	.word	0x41cdcd65
100027a8:	c1cdcd65 	.word	0xc1cdcd65
100027ac:	3fe00000 	.word	0x3fe00000
100027b0:	100039c4 	.word	0x100039c4
100027b4:	100039bc 	.word	0x100039bc
100027b8:	412e8480 	.word	0x412e8480
100027bc:	100039cc 	.word	0x100039cc
100027c0:	07f3      	lsls	r3, r6, #31
100027c2:	d400      	bmi.n	100027c6 <_ftoa+0x37a>
100027c4:	e6da      	b.n	1000257c <_ftoa+0x130>
100027c6:	3601      	adds	r6, #1
100027c8:	e6d8      	b.n	1000257c <_ftoa+0x130>
100027ca:	9b21      	ldr	r3, [sp, #132]	@ 0x84
100027cc:	3b01      	subs	r3, #1
100027ce:	9321      	str	r3, [sp, #132]	@ 0x84
100027d0:	42a3      	cmp	r3, r4
100027d2:	d900      	bls.n	100027d6 <_ftoa+0x38a>
100027d4:	e746      	b.n	10002664 <_ftoa+0x218>
100027d6:	e7aa      	b.n	1000272e <_ftoa+0x2e2>
100027d8:	9b22      	ldr	r3, [sp, #136]	@ 0x88
100027da:	9303      	str	r3, [sp, #12]
100027dc:	9b21      	ldr	r3, [sp, #132]	@ 0x84
100027de:	9302      	str	r3, [sp, #8]
100027e0:	2303      	movs	r3, #3
100027e2:	9301      	str	r3, [sp, #4]
100027e4:	4b07      	ldr	r3, [pc, #28]	@ (10002804 <_ftoa+0x3b8>)
100027e6:	e70c      	b.n	10002602 <_ftoa+0x1b6>
100027e8:	4b07      	ldr	r3, [pc, #28]	@ (10002808 <_ftoa+0x3bc>)
100027ea:	00ea      	lsls	r2, r5, #3
100027ec:	189b      	adds	r3, r3, r2
100027ee:	685c      	ldr	r4, [r3, #4]
100027f0:	681b      	ldr	r3, [r3, #0]
100027f2:	002f      	movs	r7, r5
100027f4:	9306      	str	r3, [sp, #24]
100027f6:	9407      	str	r4, [sp, #28]
100027f8:	2400      	movs	r4, #0
100027fa:	e68c      	b.n	10002516 <_ftoa+0xca>
100027fc:	9b21      	ldr	r3, [sp, #132]	@ 0x84
100027fe:	2b00      	cmp	r3, #0
10002800:	d095      	beq.n	1000272e <_ftoa+0x2e2>
10002802:	e722      	b.n	1000264a <_ftoa+0x1fe>
10002804:	100039c8 	.word	0x100039c8
10002808:	10003bf0 	.word	0x10003bf0

1000280c <_vsnprintf>:
1000280c:	b5f0      	push	{r4, r5, r6, r7, lr}
1000280e:	4657      	mov	r7, sl
10002810:	46de      	mov	lr, fp
10002812:	464e      	mov	r6, r9
10002814:	4645      	mov	r5, r8
10002816:	b5e0      	push	{r5, r6, r7, lr}
10002818:	b0a5      	sub	sp, #148	@ 0x94
1000281a:	001f      	movs	r7, r3
1000281c:	9b2e      	ldr	r3, [sp, #184]	@ 0xb8
1000281e:	4691      	mov	r9, r2
10002820:	930d      	str	r3, [sp, #52]	@ 0x34
10002822:	4aca      	ldr	r2, [pc, #808]	@ (10002b4c <_vsnprintf+0x340>)
10002824:	4bca      	ldr	r3, [pc, #808]	@ (10002b50 <_vsnprintf+0x344>)
10002826:	4682      	mov	sl, r0
10002828:	468b      	mov	fp, r1
1000282a:	601a      	str	r2, [r3, #0]
1000282c:	2900      	cmp	r1, #0
1000282e:	d100      	bne.n	10002832 <_vsnprintf+0x26>
10002830:	e229      	b.n	10002c86 <_vsnprintf+0x47a>
10002832:	2300      	movs	r3, #0
10002834:	7838      	ldrb	r0, [r7, #0]
10002836:	4698      	mov	r8, r3
10002838:	2800      	cmp	r0, #0
1000283a:	d100      	bne.n	1000283e <_vsnprintf+0x32>
1000283c:	e22b      	b.n	10002c96 <_vsnprintf+0x48a>
1000283e:	4bc5      	ldr	r3, [pc, #788]	@ (10002b54 <_vsnprintf+0x348>)
10002840:	4644      	mov	r4, r8
10002842:	930c      	str	r3, [sp, #48]	@ 0x30
10002844:	4bc4      	ldr	r3, [pc, #784]	@ (10002b58 <_vsnprintf+0x34c>)
10002846:	4655      	mov	r5, sl
10002848:	464e      	mov	r6, r9
1000284a:	930e      	str	r3, [sp, #56]	@ 0x38
1000284c:	e00a      	b.n	10002864 <_vsnprintf+0x58>
1000284e:	1c63      	adds	r3, r4, #1
10002850:	4698      	mov	r8, r3
10002852:	0022      	movs	r2, r4
10002854:	0033      	movs	r3, r6
10002856:	4659      	mov	r1, fp
10002858:	47a8      	blx	r5
1000285a:	4644      	mov	r4, r8
1000285c:	7838      	ldrb	r0, [r7, #0]
1000285e:	2800      	cmp	r0, #0
10002860:	d100      	bne.n	10002864 <_vsnprintf+0x58>
10002862:	e087      	b.n	10002974 <_vsnprintf+0x168>
10002864:	3701      	adds	r7, #1
10002866:	2825      	cmp	r0, #37	@ 0x25
10002868:	d1f1      	bne.n	1000284e <_vsnprintf+0x42>
1000286a:	2308      	movs	r3, #8
1000286c:	469a      	mov	sl, r3
1000286e:	3b04      	subs	r3, #4
10002870:	4699      	mov	r9, r3
10002872:	3b02      	subs	r3, #2
10002874:	4698      	mov	r8, r3
10002876:	3b01      	subs	r3, #1
10002878:	2200      	movs	r2, #0
1000287a:	469c      	mov	ip, r3
1000287c:	940b      	str	r4, [sp, #44]	@ 0x2c
1000287e:	7838      	ldrb	r0, [r7, #0]
10002880:	1c79      	adds	r1, r7, #1
10002882:	0003      	movs	r3, r0
10002884:	3b20      	subs	r3, #32
10002886:	b2db      	uxtb	r3, r3
10002888:	2b10      	cmp	r3, #16
1000288a:	d803      	bhi.n	10002894 <_vsnprintf+0x88>
1000288c:	9c0c      	ldr	r4, [sp, #48]	@ 0x30
1000288e:	009b      	lsls	r3, r3, #2
10002890:	58e3      	ldr	r3, [r4, r3]
10002892:	469f      	mov	pc, r3
10002894:	0003      	movs	r3, r0
10002896:	3b30      	subs	r3, #48	@ 0x30
10002898:	9c0b      	ldr	r4, [sp, #44]	@ 0x2c
1000289a:	920b      	str	r2, [sp, #44]	@ 0x2c
1000289c:	2b09      	cmp	r3, #9
1000289e:	d93a      	bls.n	10002916 <_vsnprintf+0x10a>
100028a0:	2300      	movs	r3, #0
100028a2:	4698      	mov	r8, r3
100028a4:	282a      	cmp	r0, #42	@ 0x2a
100028a6:	d100      	bne.n	100028aa <_vsnprintf+0x9e>
100028a8:	e0dd      	b.n	10002a66 <_vsnprintf+0x25a>
100028aa:	2300      	movs	r3, #0
100028ac:	469a      	mov	sl, r3
100028ae:	282e      	cmp	r0, #46	@ 0x2e
100028b0:	d04b      	beq.n	1000294a <_vsnprintf+0x13e>
100028b2:	0003      	movs	r3, r0
100028b4:	3b68      	subs	r3, #104	@ 0x68
100028b6:	b2db      	uxtb	r3, r3
100028b8:	2b12      	cmp	r3, #18
100028ba:	d81e      	bhi.n	100028fa <_vsnprintf+0xee>
100028bc:	9a0e      	ldr	r2, [sp, #56]	@ 0x38
100028be:	009b      	lsls	r3, r3, #2
100028c0:	58d3      	ldr	r3, [r2, r3]
100028c2:	469f      	mov	pc, r3
100028c4:	4663      	mov	r3, ip
100028c6:	000f      	movs	r7, r1
100028c8:	431a      	orrs	r2, r3
100028ca:	e7d8      	b.n	1000287e <_vsnprintf+0x72>
100028cc:	4643      	mov	r3, r8
100028ce:	000f      	movs	r7, r1
100028d0:	431a      	orrs	r2, r3
100028d2:	e7d4      	b.n	1000287e <_vsnprintf+0x72>
100028d4:	464b      	mov	r3, r9
100028d6:	000f      	movs	r7, r1
100028d8:	431a      	orrs	r2, r3
100028da:	e7d0      	b.n	1000287e <_vsnprintf+0x72>
100028dc:	2310      	movs	r3, #16
100028de:	000f      	movs	r7, r1
100028e0:	431a      	orrs	r2, r3
100028e2:	e7cc      	b.n	1000287e <_vsnprintf+0x72>
100028e4:	4653      	mov	r3, sl
100028e6:	000f      	movs	r7, r1
100028e8:	431a      	orrs	r2, r3
100028ea:	e7c8      	b.n	1000287e <_vsnprintf+0x72>
100028ec:	2380      	movs	r3, #128	@ 0x80
100028ee:	005b      	lsls	r3, r3, #1
100028f0:	9a0b      	ldr	r2, [sp, #44]	@ 0x2c
100028f2:	7878      	ldrb	r0, [r7, #1]
100028f4:	431a      	orrs	r2, r3
100028f6:	920b      	str	r2, [sp, #44]	@ 0x2c
100028f8:	3101      	adds	r1, #1
100028fa:	000f      	movs	r7, r1
100028fc:	2867      	cmp	r0, #103	@ 0x67
100028fe:	d84f      	bhi.n	100029a0 <_vsnprintf+0x194>
10002900:	2824      	cmp	r0, #36	@ 0x24
10002902:	d9a4      	bls.n	1000284e <_vsnprintf+0x42>
10002904:	0003      	movs	r3, r0
10002906:	3b25      	subs	r3, #37	@ 0x25
10002908:	b2db      	uxtb	r3, r3
1000290a:	2b42      	cmp	r3, #66	@ 0x42
1000290c:	d89f      	bhi.n	1000284e <_vsnprintf+0x42>
1000290e:	4993      	ldr	r1, [pc, #588]	@ (10002b5c <_vsnprintf+0x350>)
10002910:	009b      	lsls	r3, r3, #2
10002912:	58cb      	ldr	r3, [r1, r3]
10002914:	469f      	mov	pc, r3
10002916:	2300      	movs	r3, #0
10002918:	4698      	mov	r8, r3
1000291a:	9b0b      	ldr	r3, [sp, #44]	@ 0x2c
1000291c:	4647      	mov	r7, r8
1000291e:	469c      	mov	ip, r3
10002920:	e000      	b.n	10002924 <_vsnprintf+0x118>
10002922:	3101      	adds	r1, #1
10002924:	00bb      	lsls	r3, r7, #2
10002926:	19db      	adds	r3, r3, r7
10002928:	005b      	lsls	r3, r3, #1
1000292a:	181f      	adds	r7, r3, r0
1000292c:	7808      	ldrb	r0, [r1, #0]
1000292e:	3f30      	subs	r7, #48	@ 0x30
10002930:	0003      	movs	r3, r0
10002932:	3b30      	subs	r3, #48	@ 0x30
10002934:	2b09      	cmp	r3, #9
10002936:	d9f4      	bls.n	10002922 <_vsnprintf+0x116>
10002938:	4663      	mov	r3, ip
1000293a:	930b      	str	r3, [sp, #44]	@ 0x2c
1000293c:	2300      	movs	r3, #0
1000293e:	46b8      	mov	r8, r7
10002940:	469a      	mov	sl, r3
10002942:	000f      	movs	r7, r1
10002944:	3101      	adds	r1, #1
10002946:	282e      	cmp	r0, #46	@ 0x2e
10002948:	d1b3      	bne.n	100028b2 <_vsnprintf+0xa6>
1000294a:	2080      	movs	r0, #128	@ 0x80
1000294c:	9a0b      	ldr	r2, [sp, #44]	@ 0x2c
1000294e:	00c0      	lsls	r0, r0, #3
10002950:	4302      	orrs	r2, r0
10002952:	920b      	str	r2, [sp, #44]	@ 0x2c
10002954:	2230      	movs	r2, #48	@ 0x30
10002956:	4252      	negs	r2, r2
10002958:	4694      	mov	ip, r2
1000295a:	7878      	ldrb	r0, [r7, #1]
1000295c:	000b      	movs	r3, r1
1000295e:	4484      	add	ip, r0
10002960:	4662      	mov	r2, ip
10002962:	2a09      	cmp	r2, #9
10002964:	d800      	bhi.n	10002968 <_vsnprintf+0x15c>
10002966:	e1aa      	b.n	10002cbe <_vsnprintf+0x4b2>
10002968:	282a      	cmp	r0, #42	@ 0x2a
1000296a:	d100      	bne.n	1000296e <_vsnprintf+0x162>
1000296c:	e1b9      	b.n	10002ce2 <_vsnprintf+0x4d6>
1000296e:	000f      	movs	r7, r1
10002970:	3101      	adds	r1, #1
10002972:	e79e      	b.n	100028b2 <_vsnprintf+0xa6>
10002974:	46a0      	mov	r8, r4
10002976:	46aa      	mov	sl, r5
10002978:	46b1      	mov	r9, r6
1000297a:	45c8      	cmp	r8, r9
1000297c:	d303      	bcc.n	10002986 <_vsnprintf+0x17a>
1000297e:	2301      	movs	r3, #1
10002980:	425b      	negs	r3, r3
10002982:	444b      	add	r3, r9
10002984:	4698      	mov	r8, r3
10002986:	464b      	mov	r3, r9
10002988:	4642      	mov	r2, r8
1000298a:	4659      	mov	r1, fp
1000298c:	2000      	movs	r0, #0
1000298e:	47d0      	blx	sl
10002990:	0020      	movs	r0, r4
10002992:	b025      	add	sp, #148	@ 0x94
10002994:	bcf0      	pop	{r4, r5, r6, r7}
10002996:	46bb      	mov	fp, r7
10002998:	46b2      	mov	sl, r6
1000299a:	46a9      	mov	r9, r5
1000299c:	46a0      	mov	r8, r4
1000299e:	bdf0      	pop	{r4, r5, r6, r7, pc}
100029a0:	0001      	movs	r1, r0
100029a2:	3969      	subs	r1, #105	@ 0x69
100029a4:	b2c9      	uxtb	r1, r1
100029a6:	290f      	cmp	r1, #15
100029a8:	d900      	bls.n	100029ac <_vsnprintf+0x1a0>
100029aa:	e750      	b.n	1000284e <_vsnprintf+0x42>
100029ac:	2301      	movs	r3, #1
100029ae:	408b      	lsls	r3, r1
100029b0:	469c      	mov	ip, r3
100029b2:	4b6b      	ldr	r3, [pc, #428]	@ (10002b60 <_vsnprintf+0x354>)
100029b4:	4699      	mov	r9, r3
100029b6:	4663      	mov	r3, ip
100029b8:	464a      	mov	r2, r9
100029ba:	4013      	ands	r3, r2
100029bc:	930f      	str	r3, [sp, #60]	@ 0x3c
100029be:	4662      	mov	r2, ip
100029c0:	464b      	mov	r3, r9
100029c2:	421a      	tst	r2, r3
100029c4:	d000      	beq.n	100029c8 <_vsnprintf+0x1bc>
100029c6:	e168      	b.n	10002c9a <_vsnprintf+0x48e>
100029c8:	290a      	cmp	r1, #10
100029ca:	d056      	beq.n	10002a7a <_vsnprintf+0x26e>
100029cc:	2907      	cmp	r1, #7
100029ce:	d000      	beq.n	100029d2 <_vsnprintf+0x1c6>
100029d0:	e73d      	b.n	1000284e <_vsnprintf+0x42>
100029d2:	9b0d      	ldr	r3, [sp, #52]	@ 0x34
100029d4:	cb02      	ldmia	r3!, {r1}
100029d6:	4698      	mov	r8, r3
100029d8:	2900      	cmp	r1, #0
100029da:	d000      	beq.n	100029de <_vsnprintf+0x1d2>
100029dc:	e192      	b.n	10002d04 <_vsnprintf+0x4f8>
100029de:	9b0b      	ldr	r3, [sp, #44]	@ 0x2c
100029e0:	2110      	movs	r1, #16
100029e2:	001a      	movs	r2, r3
100029e4:	438a      	bics	r2, r1
100029e6:	0010      	movs	r0, r2
100029e8:	3111      	adds	r1, #17
100029ea:	4308      	orrs	r0, r1
100029ec:	4681      	mov	r9, r0
100029ee:	2080      	movs	r0, #128	@ 0x80
100029f0:	001a      	movs	r2, r3
100029f2:	00c0      	lsls	r0, r0, #3
100029f4:	4002      	ands	r2, r0
100029f6:	0011      	movs	r1, r2
100029f8:	4203      	tst	r3, r0
100029fa:	d11c      	bne.n	10002a36 <_vsnprintf+0x22a>
100029fc:	ab14      	add	r3, sp, #80	@ 0x50
100029fe:	469c      	mov	ip, r3
10002a00:	221f      	movs	r2, #31
10002a02:	230f      	movs	r3, #15
10002a04:	4462      	add	r2, ip
10002a06:	950d      	str	r5, [sp, #52]	@ 0x34
10002a08:	469c      	mov	ip, r3
10002a0a:	0015      	movs	r5, r2
10002a0c:	9b0f      	ldr	r3, [sp, #60]	@ 0x3c
10002a0e:	940b      	str	r4, [sp, #44]	@ 0x2c
10002a10:	e002      	b.n	10002a18 <_vsnprintf+0x20c>
10002a12:	2b20      	cmp	r3, #32
10002a14:	d00c      	beq.n	10002a30 <_vsnprintf+0x224>
10002a16:	0011      	movs	r1, r2
10002a18:	4664      	mov	r4, ip
10002a1a:	400c      	ands	r4, r1
10002a1c:	0020      	movs	r0, r4
10002a1e:	3037      	adds	r0, #55	@ 0x37
10002a20:	2c09      	cmp	r4, #9
10002a22:	d800      	bhi.n	10002a26 <_vsnprintf+0x21a>
10002a24:	3807      	subs	r0, #7
10002a26:	3301      	adds	r3, #1
10002a28:	54e8      	strb	r0, [r5, r3]
10002a2a:	090a      	lsrs	r2, r1, #4
10002a2c:	290f      	cmp	r1, #15
10002a2e:	d8f0      	bhi.n	10002a12 <_vsnprintf+0x206>
10002a30:	9c0b      	ldr	r4, [sp, #44]	@ 0x2c
10002a32:	9d0d      	ldr	r5, [sp, #52]	@ 0x34
10002a34:	930f      	str	r3, [sp, #60]	@ 0x3c
10002a36:	464b      	mov	r3, r9
10002a38:	2208      	movs	r2, #8
10002a3a:	9306      	str	r3, [sp, #24]
10002a3c:	4653      	mov	r3, sl
10002a3e:	9205      	str	r2, [sp, #20]
10002a40:	3208      	adds	r2, #8
10002a42:	9203      	str	r2, [sp, #12]
10002a44:	2200      	movs	r2, #0
10002a46:	9304      	str	r3, [sp, #16]
10002a48:	9b0f      	ldr	r3, [sp, #60]	@ 0x3c
10002a4a:	9202      	str	r2, [sp, #8]
10002a4c:	9301      	str	r3, [sp, #4]
10002a4e:	ab1c      	add	r3, sp, #112	@ 0x70
10002a50:	0022      	movs	r2, r4
10002a52:	9300      	str	r3, [sp, #0]
10002a54:	4659      	mov	r1, fp
10002a56:	0033      	movs	r3, r6
10002a58:	0028      	movs	r0, r5
10002a5a:	f7ff f98d 	bl	10001d78 <_ntoa_format>
10002a5e:	4643      	mov	r3, r8
10002a60:	0004      	movs	r4, r0
10002a62:	930d      	str	r3, [sp, #52]	@ 0x34
10002a64:	e6fa      	b.n	1000285c <_vsnprintf+0x50>
10002a66:	9b0d      	ldr	r3, [sp, #52]	@ 0x34
10002a68:	cb04      	ldmia	r3!, {r2}
10002a6a:	4690      	mov	r8, r2
10002a6c:	2a00      	cmp	r2, #0
10002a6e:	db79      	blt.n	10002b64 <_vsnprintf+0x358>
10002a70:	7878      	ldrb	r0, [r7, #1]
10002a72:	930d      	str	r3, [sp, #52]	@ 0x34
10002a74:	000f      	movs	r7, r1
10002a76:	3101      	adds	r1, #1
10002a78:	e717      	b.n	100028aa <_vsnprintf+0x9e>
10002a7a:	9b0d      	ldr	r3, [sp, #52]	@ 0x34
10002a7c:	cb02      	ldmia	r3!, {r1}
10002a7e:	9314      	str	r3, [sp, #80]	@ 0x50
10002a80:	780b      	ldrb	r3, [r1, #0]
10002a82:	469c      	mov	ip, r3
10002a84:	0018      	movs	r0, r3
10002a86:	4653      	mov	r3, sl
10002a88:	2b00      	cmp	r3, #0
10002a8a:	d100      	bne.n	10002a8e <_vsnprintf+0x282>
10002a8c:	e134      	b.n	10002cf8 <_vsnprintf+0x4ec>
10002a8e:	2800      	cmp	r0, #0
10002a90:	d015      	beq.n	10002abe <_vsnprintf+0x2b2>
10002a92:	4653      	mov	r3, sl
10002a94:	3b01      	subs	r3, #1
10002a96:	3301      	adds	r3, #1
10002a98:	4699      	mov	r9, r3
10002a9a:	940d      	str	r4, [sp, #52]	@ 0x34
10002a9c:	9c0b      	ldr	r4, [sp, #44]	@ 0x2c
10002a9e:	4489      	add	r9, r1
10002aa0:	464a      	mov	r2, r9
10002aa2:	000b      	movs	r3, r1
10002aa4:	46a1      	mov	r9, r4
10002aa6:	e001      	b.n	10002aac <_vsnprintf+0x2a0>
10002aa8:	4293      	cmp	r3, r2
10002aaa:	d003      	beq.n	10002ab4 <_vsnprintf+0x2a8>
10002aac:	785c      	ldrb	r4, [r3, #1]
10002aae:	3301      	adds	r3, #1
10002ab0:	2c00      	cmp	r4, #0
10002ab2:	d1f9      	bne.n	10002aa8 <_vsnprintf+0x29c>
10002ab4:	464a      	mov	r2, r9
10002ab6:	1a5b      	subs	r3, r3, r1
10002ab8:	9c0d      	ldr	r4, [sp, #52]	@ 0x34
10002aba:	920b      	str	r2, [sp, #44]	@ 0x2c
10002abc:	930f      	str	r3, [sp, #60]	@ 0x3c
10002abe:	2380      	movs	r3, #128	@ 0x80
10002ac0:	00db      	lsls	r3, r3, #3
10002ac2:	4699      	mov	r9, r3
10002ac4:	9a0b      	ldr	r2, [sp, #44]	@ 0x2c
10002ac6:	4013      	ands	r3, r2
10002ac8:	930d      	str	r3, [sp, #52]	@ 0x34
10002aca:	464b      	mov	r3, r9
10002acc:	421a      	tst	r2, r3
10002ace:	d004      	beq.n	10002ada <_vsnprintf+0x2ce>
10002ad0:	9b0f      	ldr	r3, [sp, #60]	@ 0x3c
10002ad2:	4553      	cmp	r3, sl
10002ad4:	d901      	bls.n	10002ada <_vsnprintf+0x2ce>
10002ad6:	4653      	mov	r3, sl
10002ad8:	930f      	str	r3, [sp, #60]	@ 0x3c
10002ada:	2302      	movs	r3, #2
10002adc:	4699      	mov	r9, r3
10002ade:	9a0b      	ldr	r2, [sp, #44]	@ 0x2c
10002ae0:	4013      	ands	r3, r2
10002ae2:	930b      	str	r3, [sp, #44]	@ 0x2c
10002ae4:	464b      	mov	r3, r9
10002ae6:	4213      	tst	r3, r2
10002ae8:	d100      	bne.n	10002aec <_vsnprintf+0x2e0>
10002aea:	e1f5      	b.n	10002ed8 <_vsnprintf+0x6cc>
10002aec:	4663      	mov	r3, ip
10002aee:	2b00      	cmp	r3, #0
10002af0:	d100      	bne.n	10002af4 <_vsnprintf+0x2e8>
10002af2:	e1d6      	b.n	10002ea2 <_vsnprintf+0x696>
10002af4:	9b0d      	ldr	r3, [sp, #52]	@ 0x34
10002af6:	2b00      	cmp	r3, #0
10002af8:	d100      	bne.n	10002afc <_vsnprintf+0x2f0>
10002afa:	e182      	b.n	10002e02 <_vsnprintf+0x5f6>
10002afc:	1b0b      	subs	r3, r1, r4
10002afe:	46d1      	mov	r9, sl
10002b00:	0031      	movs	r1, r6
10002b02:	469a      	mov	sl, r3
10002b04:	003b      	movs	r3, r7
10002b06:	44a1      	add	r9, r4
10002b08:	002e      	movs	r6, r5
10002b0a:	465f      	mov	r7, fp
10002b0c:	464d      	mov	r5, r9
10002b0e:	0022      	movs	r2, r4
10002b10:	469b      	mov	fp, r3
10002b12:	4689      	mov	r9, r1
10002b14:	e009      	b.n	10002b2a <_vsnprintf+0x31e>
10002b16:	464b      	mov	r3, r9
10002b18:	0039      	movs	r1, r7
10002b1a:	1c54      	adds	r4, r2, #1
10002b1c:	47b0      	blx	r6
10002b1e:	4653      	mov	r3, sl
10002b20:	5d18      	ldrb	r0, [r3, r4]
10002b22:	2800      	cmp	r0, #0
10002b24:	d100      	bne.n	10002b28 <_vsnprintf+0x31c>
10002b26:	e192      	b.n	10002e4e <_vsnprintf+0x642>
10002b28:	0022      	movs	r2, r4
10002b2a:	4295      	cmp	r5, r2
10002b2c:	d1f3      	bne.n	10002b16 <_vsnprintf+0x30a>
10002b2e:	464b      	mov	r3, r9
10002b30:	465a      	mov	r2, fp
10002b32:	46a9      	mov	r9, r5
10002b34:	46bb      	mov	fp, r7
10002b36:	0035      	movs	r5, r6
10002b38:	0017      	movs	r7, r2
10002b3a:	001e      	movs	r6, r3
10002b3c:	464c      	mov	r4, r9
10002b3e:	9b0b      	ldr	r3, [sp, #44]	@ 0x2c
10002b40:	2b00      	cmp	r3, #0
10002b42:	d000      	beq.n	10002b46 <_vsnprintf+0x33a>
10002b44:	e1ad      	b.n	10002ea2 <_vsnprintf+0x696>
10002b46:	9b14      	ldr	r3, [sp, #80]	@ 0x50
10002b48:	930d      	str	r3, [sp, #52]	@ 0x34
10002b4a:	e687      	b.n	1000285c <_vsnprintf+0x50>
10002b4c:	1000280d 	.word	0x1000280d
10002b50:	2000049c 	.word	0x2000049c
10002b54:	10003a54 	.word	0x10003a54
10002b58:	10003a98 	.word	0x10003a98
10002b5c:	10003ae4 	.word	0x10003ae4
10002b60:	00009041 	.word	0x00009041
10002b64:	9a0b      	ldr	r2, [sp, #44]	@ 0x2c
10002b66:	3828      	subs	r0, #40	@ 0x28
10002b68:	4302      	orrs	r2, r0
10002b6a:	920b      	str	r2, [sp, #44]	@ 0x2c
10002b6c:	4642      	mov	r2, r8
10002b6e:	4252      	negs	r2, r2
10002b70:	7878      	ldrb	r0, [r7, #1]
10002b72:	4690      	mov	r8, r2
10002b74:	000f      	movs	r7, r1
10002b76:	930d      	str	r3, [sp, #52]	@ 0x34
10002b78:	3101      	adds	r1, #1
10002b7a:	e696      	b.n	100028aa <_vsnprintf+0x9e>
10002b7c:	7878      	ldrb	r0, [r7, #1]
10002b7e:	286c      	cmp	r0, #108	@ 0x6c
10002b80:	d100      	bne.n	10002b84 <_vsnprintf+0x378>
10002b82:	e15d      	b.n	10002e40 <_vsnprintf+0x634>
10002b84:	2380      	movs	r3, #128	@ 0x80
10002b86:	9a0b      	ldr	r2, [sp, #44]	@ 0x2c
10002b88:	005b      	lsls	r3, r3, #1
10002b8a:	431a      	orrs	r2, r3
10002b8c:	920b      	str	r2, [sp, #44]	@ 0x2c
10002b8e:	3101      	adds	r1, #1
10002b90:	e6b3      	b.n	100028fa <_vsnprintf+0xee>
10002b92:	2380      	movs	r3, #128	@ 0x80
10002b94:	009b      	lsls	r3, r3, #2
10002b96:	e6ab      	b.n	100028f0 <_vsnprintf+0xe4>
10002b98:	7878      	ldrb	r0, [r7, #1]
10002b9a:	2868      	cmp	r0, #104	@ 0x68
10002b9c:	d100      	bne.n	10002ba0 <_vsnprintf+0x394>
10002b9e:	e148      	b.n	10002e32 <_vsnprintf+0x626>
10002ba0:	2380      	movs	r3, #128	@ 0x80
10002ba2:	9a0b      	ldr	r2, [sp, #44]	@ 0x2c
10002ba4:	3101      	adds	r1, #1
10002ba6:	431a      	orrs	r2, r3
10002ba8:	920b      	str	r2, [sp, #44]	@ 0x2c
10002baa:	e6a6      	b.n	100028fa <_vsnprintf+0xee>
10002bac:	2867      	cmp	r0, #103	@ 0x67
10002bae:	d100      	bne.n	10002bb2 <_vsnprintf+0x3a6>
10002bb0:	e0b2      	b.n	10002d18 <_vsnprintf+0x50c>
10002bb2:	2847      	cmp	r0, #71	@ 0x47
10002bb4:	d100      	bne.n	10002bb8 <_vsnprintf+0x3ac>
10002bb6:	e11a      	b.n	10002dee <_vsnprintf+0x5e2>
10002bb8:	2845      	cmp	r0, #69	@ 0x45
10002bba:	d100      	bne.n	10002bbe <_vsnprintf+0x3b2>
10002bbc:	e11c      	b.n	10002df8 <_vsnprintf+0x5ec>
10002bbe:	9a0b      	ldr	r2, [sp, #44]	@ 0x2c
10002bc0:	2107      	movs	r1, #7
10002bc2:	9204      	str	r2, [sp, #16]
10002bc4:	4642      	mov	r2, r8
10002bc6:	9b0d      	ldr	r3, [sp, #52]	@ 0x34
10002bc8:	9203      	str	r2, [sp, #12]
10002bca:	3307      	adds	r3, #7
10002bcc:	4652      	mov	r2, sl
10002bce:	438b      	bics	r3, r1
10002bd0:	0019      	movs	r1, r3
10002bd2:	9202      	str	r2, [sp, #8]
10002bd4:	c90c      	ldmia	r1!, {r2, r3}
10002bd6:	0028      	movs	r0, r5
10002bd8:	9200      	str	r2, [sp, #0]
10002bda:	9301      	str	r3, [sp, #4]
10002bdc:	910d      	str	r1, [sp, #52]	@ 0x34
10002bde:	0022      	movs	r2, r4
10002be0:	0033      	movs	r3, r6
10002be2:	4659      	mov	r1, fp
10002be4:	f7ff fa00 	bl	10001fe8 <_etoa>
10002be8:	0004      	movs	r4, r0
10002bea:	e637      	b.n	1000285c <_vsnprintf+0x50>
10002bec:	2846      	cmp	r0, #70	@ 0x46
10002bee:	d100      	bne.n	10002bf2 <_vsnprintf+0x3e6>
10002bf0:	e08d      	b.n	10002d0e <_vsnprintf+0x502>
10002bf2:	9a0b      	ldr	r2, [sp, #44]	@ 0x2c
10002bf4:	2107      	movs	r1, #7
10002bf6:	9204      	str	r2, [sp, #16]
10002bf8:	4642      	mov	r2, r8
10002bfa:	9b0d      	ldr	r3, [sp, #52]	@ 0x34
10002bfc:	9203      	str	r2, [sp, #12]
10002bfe:	3307      	adds	r3, #7
10002c00:	4652      	mov	r2, sl
10002c02:	438b      	bics	r3, r1
10002c04:	0019      	movs	r1, r3
10002c06:	9202      	str	r2, [sp, #8]
10002c08:	c90c      	ldmia	r1!, {r2, r3}
10002c0a:	0028      	movs	r0, r5
10002c0c:	9200      	str	r2, [sp, #0]
10002c0e:	9301      	str	r3, [sp, #4]
10002c10:	910d      	str	r1, [sp, #52]	@ 0x34
10002c12:	0022      	movs	r2, r4
10002c14:	0033      	movs	r3, r6
10002c16:	4659      	mov	r1, fp
10002c18:	f7ff fc18 	bl	1000244c <_ftoa>
10002c1c:	0004      	movs	r4, r0
10002c1e:	e61d      	b.n	1000285c <_vsnprintf+0x50>
10002c20:	1c63      	adds	r3, r4, #1
10002c22:	4698      	mov	r8, r3
10002c24:	0022      	movs	r2, r4
10002c26:	0033      	movs	r3, r6
10002c28:	4659      	mov	r1, fp
10002c2a:	2025      	movs	r0, #37	@ 0x25
10002c2c:	47a8      	blx	r5
10002c2e:	4644      	mov	r4, r8
10002c30:	e614      	b.n	1000285c <_vsnprintf+0x50>
10002c32:	9b0d      	ldr	r3, [sp, #52]	@ 0x34
10002c34:	3304      	adds	r3, #4
10002c36:	930f      	str	r3, [sp, #60]	@ 0x3c
10002c38:	1c63      	adds	r3, r4, #1
10002c3a:	4699      	mov	r9, r3
10002c3c:	9b0b      	ldr	r3, [sp, #44]	@ 0x2c
10002c3e:	079a      	lsls	r2, r3, #30
10002c40:	d400      	bmi.n	10002c44 <_vsnprintf+0x438>
10002c42:	e10a      	b.n	10002e5a <_vsnprintf+0x64e>
10002c44:	9b0d      	ldr	r3, [sp, #52]	@ 0x34
10002c46:	0022      	movs	r2, r4
10002c48:	7818      	ldrb	r0, [r3, #0]
10002c4a:	4659      	mov	r1, fp
10002c4c:	0033      	movs	r3, r6
10002c4e:	47a8      	blx	r5
10002c50:	4643      	mov	r3, r8
10002c52:	4444      	add	r4, r8
10002c54:	2b01      	cmp	r3, #1
10002c56:	d800      	bhi.n	10002c5a <_vsnprintf+0x44e>
10002c58:	e16f      	b.n	10002f3a <_vsnprintf+0x72e>
10002c5a:	46b0      	mov	r8, r6
10002c5c:	002e      	movs	r6, r5
10002c5e:	0025      	movs	r5, r4
10002c60:	464c      	mov	r4, r9
10002c62:	46b9      	mov	r9, r7
10002c64:	465f      	mov	r7, fp
10002c66:	0022      	movs	r2, r4
10002c68:	4643      	mov	r3, r8
10002c6a:	3401      	adds	r4, #1
10002c6c:	0039      	movs	r1, r7
10002c6e:	2020      	movs	r0, #32
10002c70:	47b0      	blx	r6
10002c72:	42ac      	cmp	r4, r5
10002c74:	d1f7      	bne.n	10002c66 <_vsnprintf+0x45a>
10002c76:	002c      	movs	r4, r5
10002c78:	46bb      	mov	fp, r7
10002c7a:	0035      	movs	r5, r6
10002c7c:	464f      	mov	r7, r9
10002c7e:	4646      	mov	r6, r8
10002c80:	9b0f      	ldr	r3, [sp, #60]	@ 0x3c
10002c82:	930d      	str	r3, [sp, #52]	@ 0x34
10002c84:	e5ea      	b.n	1000285c <_vsnprintf+0x50>
10002c86:	4bd6      	ldr	r3, [pc, #856]	@ (10002fe0 <_vsnprintf+0x7d4>)
10002c88:	7838      	ldrb	r0, [r7, #0]
10002c8a:	469a      	mov	sl, r3
10002c8c:	2300      	movs	r3, #0
10002c8e:	4698      	mov	r8, r3
10002c90:	2800      	cmp	r0, #0
10002c92:	d000      	beq.n	10002c96 <_vsnprintf+0x48a>
10002c94:	e5d3      	b.n	1000283e <_vsnprintf+0x32>
10002c96:	2400      	movs	r4, #0
10002c98:	e66f      	b.n	1000297a <_vsnprintf+0x16e>
10002c9a:	286f      	cmp	r0, #111	@ 0x6f
10002c9c:	d042      	beq.n	10002d24 <_vsnprintf+0x518>
10002c9e:	d800      	bhi.n	10002ca2 <_vsnprintf+0x496>
10002ca0:	e1fd      	b.n	1000309e <_vsnprintf+0x892>
10002ca2:	2310      	movs	r3, #16
10002ca4:	2878      	cmp	r0, #120	@ 0x78
10002ca6:	d100      	bne.n	10002caa <_vsnprintf+0x49e>
10002ca8:	e09b      	b.n	10002de2 <_vsnprintf+0x5d6>
10002caa:	9a0b      	ldr	r2, [sp, #44]	@ 0x2c
10002cac:	439a      	bics	r2, r3
10002cae:	920b      	str	r2, [sp, #44]	@ 0x2c
10002cb0:	230a      	movs	r3, #10
10002cb2:	469c      	mov	ip, r3
10002cb4:	2300      	movs	r3, #0
10002cb6:	9314      	str	r3, [sp, #80]	@ 0x50
10002cb8:	330a      	adds	r3, #10
10002cba:	930f      	str	r3, [sp, #60]	@ 0x3c
10002cbc:	e038      	b.n	10002d30 <_vsnprintf+0x524>
10002cbe:	4657      	mov	r7, sl
10002cc0:	9a0b      	ldr	r2, [sp, #44]	@ 0x2c
10002cc2:	00b9      	lsls	r1, r7, #2
10002cc4:	19c9      	adds	r1, r1, r7
10002cc6:	0049      	lsls	r1, r1, #1
10002cc8:	3301      	adds	r3, #1
10002cca:	180f      	adds	r7, r1, r0
10002ccc:	7818      	ldrb	r0, [r3, #0]
10002cce:	3f30      	subs	r7, #48	@ 0x30
10002cd0:	0001      	movs	r1, r0
10002cd2:	3930      	subs	r1, #48	@ 0x30
10002cd4:	2909      	cmp	r1, #9
10002cd6:	d9f4      	bls.n	10002cc2 <_vsnprintf+0x4b6>
10002cd8:	46ba      	mov	sl, r7
10002cda:	920b      	str	r2, [sp, #44]	@ 0x2c
10002cdc:	001f      	movs	r7, r3
10002cde:	1c59      	adds	r1, r3, #1
10002ce0:	e5e7      	b.n	100028b2 <_vsnprintf+0xa6>
10002ce2:	9b0d      	ldr	r3, [sp, #52]	@ 0x34
10002ce4:	78b8      	ldrb	r0, [r7, #2]
10002ce6:	cb04      	ldmia	r3!, {r2}
10002ce8:	3702      	adds	r7, #2
10002cea:	43d1      	mvns	r1, r2
10002cec:	17c9      	asrs	r1, r1, #31
10002cee:	400a      	ands	r2, r1
10002cf0:	4692      	mov	sl, r2
10002cf2:	930d      	str	r3, [sp, #52]	@ 0x34
10002cf4:	1c79      	adds	r1, r7, #1
10002cf6:	e5dc      	b.n	100028b2 <_vsnprintf+0xa6>
10002cf8:	2800      	cmp	r0, #0
10002cfa:	d100      	bne.n	10002cfe <_vsnprintf+0x4f2>
10002cfc:	e6df      	b.n	10002abe <_vsnprintf+0x2b2>
10002cfe:	2302      	movs	r3, #2
10002d00:	425b      	negs	r3, r3
10002d02:	e6c8      	b.n	10002a96 <_vsnprintf+0x28a>
10002d04:	2021      	movs	r0, #33	@ 0x21
10002d06:	9a0b      	ldr	r2, [sp, #44]	@ 0x2c
10002d08:	4302      	orrs	r2, r0
10002d0a:	4691      	mov	r9, r2
10002d0c:	e676      	b.n	100029fc <_vsnprintf+0x1f0>
10002d0e:	2320      	movs	r3, #32
10002d10:	9a0b      	ldr	r2, [sp, #44]	@ 0x2c
10002d12:	431a      	orrs	r2, r3
10002d14:	920b      	str	r2, [sp, #44]	@ 0x2c
10002d16:	e76c      	b.n	10002bf2 <_vsnprintf+0x3e6>
10002d18:	2380      	movs	r3, #128	@ 0x80
10002d1a:	9a0b      	ldr	r2, [sp, #44]	@ 0x2c
10002d1c:	011b      	lsls	r3, r3, #4
10002d1e:	431a      	orrs	r2, r3
10002d20:	920b      	str	r2, [sp, #44]	@ 0x2c
10002d22:	e74c      	b.n	10002bbe <_vsnprintf+0x3b2>
10002d24:	2308      	movs	r3, #8
10002d26:	469c      	mov	ip, r3
10002d28:	2300      	movs	r3, #0
10002d2a:	9314      	str	r3, [sp, #80]	@ 0x50
10002d2c:	3308      	adds	r3, #8
10002d2e:	930f      	str	r3, [sp, #60]	@ 0x3c
10002d30:	980b      	ldr	r0, [sp, #44]	@ 0x2c
10002d32:	2380      	movs	r3, #128	@ 0x80
10002d34:	0002      	movs	r2, r0
10002d36:	00db      	lsls	r3, r3, #3
10002d38:	401a      	ands	r2, r3
10002d3a:	0011      	movs	r1, r2
10002d3c:	0002      	movs	r2, r0
10002d3e:	4218      	tst	r0, r3
10002d40:	d000      	beq.n	10002d44 <_vsnprintf+0x538>
10002d42:	e080      	b.n	10002e46 <_vsnprintf+0x63a>
10002d44:	230c      	movs	r3, #12
10002d46:	439a      	bics	r2, r3
10002d48:	0010      	movs	r0, r2
10002d4a:	2380      	movs	r3, #128	@ 0x80
10002d4c:	0002      	movs	r2, r0
10002d4e:	009b      	lsls	r3, r3, #2
10002d50:	401a      	ands	r2, r3
10002d52:	920b      	str	r2, [sp, #44]	@ 0x2c
10002d54:	4218      	tst	r0, r3
10002d56:	d000      	beq.n	10002d5a <_vsnprintf+0x54e>
10002d58:	e0f1      	b.n	10002f3e <_vsnprintf+0x732>
10002d5a:	2380      	movs	r3, #128	@ 0x80
10002d5c:	0002      	movs	r2, r0
10002d5e:	005b      	lsls	r3, r3, #1
10002d60:	401a      	ands	r2, r3
10002d62:	4691      	mov	r9, r2
10002d64:	9a0d      	ldr	r2, [sp, #52]	@ 0x34
10002d66:	3204      	adds	r2, #4
10002d68:	9214      	str	r2, [sp, #80]	@ 0x50
10002d6a:	4218      	tst	r0, r3
10002d6c:	d000      	beq.n	10002d70 <_vsnprintf+0x564>
10002d6e:	e2c3      	b.n	100032f8 <_vsnprintf+0xaec>
10002d70:	0643      	lsls	r3, r0, #25
10002d72:	d500      	bpl.n	10002d76 <_vsnprintf+0x56a>
10002d74:	e0d7      	b.n	10002f26 <_vsnprintf+0x71a>
10002d76:	0603      	lsls	r3, r0, #24
10002d78:	d400      	bmi.n	10002d7c <_vsnprintf+0x570>
10002d7a:	e321      	b.n	100033c0 <_vsnprintf+0xbb4>
10002d7c:	9b0d      	ldr	r3, [sp, #52]	@ 0x34
10002d7e:	881b      	ldrh	r3, [r3, #0]
10002d80:	9309      	str	r3, [sp, #36]	@ 0x24
10002d82:	2b00      	cmp	r3, #0
10002d84:	d000      	beq.n	10002d88 <_vsnprintf+0x57c>
10002d86:	e12d      	b.n	10002fe4 <_vsnprintf+0x7d8>
10002d88:	3310      	adds	r3, #16
10002d8a:	4398      	bics	r0, r3
10002d8c:	2900      	cmp	r1, #0
10002d8e:	d100      	bne.n	10002d92 <_vsnprintf+0x586>
10002d90:	e128      	b.n	10002fe4 <_vsnprintf+0x7d8>
10002d92:	2300      	movs	r3, #0
10002d94:	4699      	mov	r9, r3
10002d96:	4643      	mov	r3, r8
10002d98:	9305      	str	r3, [sp, #20]
10002d9a:	4653      	mov	r3, sl
10002d9c:	9304      	str	r3, [sp, #16]
10002d9e:	9b0f      	ldr	r3, [sp, #60]	@ 0x3c
10002da0:	9006      	str	r0, [sp, #24]
10002da2:	9303      	str	r3, [sp, #12]
10002da4:	2300      	movs	r3, #0
10002da6:	9302      	str	r3, [sp, #8]
10002da8:	464b      	mov	r3, r9
10002daa:	9301      	str	r3, [sp, #4]
10002dac:	ab1c      	add	r3, sp, #112	@ 0x70
10002dae:	0022      	movs	r2, r4
10002db0:	9300      	str	r3, [sp, #0]
10002db2:	4659      	mov	r1, fp
10002db4:	0033      	movs	r3, r6
10002db6:	0028      	movs	r0, r5
10002db8:	f7fe ffde 	bl	10001d78 <_ntoa_format>
10002dbc:	0004      	movs	r4, r0
10002dbe:	e6c2      	b.n	10002b46 <_vsnprintf+0x33a>
10002dc0:	2858      	cmp	r0, #88	@ 0x58
10002dc2:	d009      	beq.n	10002dd8 <_vsnprintf+0x5cc>
10002dc4:	2862      	cmp	r0, #98	@ 0x62
10002dc6:	d000      	beq.n	10002dca <_vsnprintf+0x5be>
10002dc8:	e2e3      	b.n	10003392 <_vsnprintf+0xb86>
10002dca:	2302      	movs	r3, #2
10002dcc:	469c      	mov	ip, r3
10002dce:	2300      	movs	r3, #0
10002dd0:	9314      	str	r3, [sp, #80]	@ 0x50
10002dd2:	3302      	adds	r3, #2
10002dd4:	930f      	str	r3, [sp, #60]	@ 0x3c
10002dd6:	e7ab      	b.n	10002d30 <_vsnprintf+0x524>
10002dd8:	2320      	movs	r3, #32
10002dda:	9a0b      	ldr	r2, [sp, #44]	@ 0x2c
10002ddc:	431a      	orrs	r2, r3
10002dde:	920b      	str	r2, [sp, #44]	@ 0x2c
10002de0:	3b10      	subs	r3, #16
10002de2:	469c      	mov	ip, r3
10002de4:	2300      	movs	r3, #0
10002de6:	9314      	str	r3, [sp, #80]	@ 0x50
10002de8:	3310      	adds	r3, #16
10002dea:	930f      	str	r3, [sp, #60]	@ 0x3c
10002dec:	e7a0      	b.n	10002d30 <_vsnprintf+0x524>
10002dee:	2380      	movs	r3, #128	@ 0x80
10002df0:	9a0b      	ldr	r2, [sp, #44]	@ 0x2c
10002df2:	011b      	lsls	r3, r3, #4
10002df4:	431a      	orrs	r2, r3
10002df6:	920b      	str	r2, [sp, #44]	@ 0x2c
10002df8:	2320      	movs	r3, #32
10002dfa:	9a0b      	ldr	r2, [sp, #44]	@ 0x2c
10002dfc:	431a      	orrs	r2, r3
10002dfe:	920b      	str	r2, [sp, #44]	@ 0x2c
10002e00:	e6dd      	b.n	10002bbe <_vsnprintf+0x3b2>
10002e02:	1b0b      	subs	r3, r1, r4
10002e04:	469a      	mov	sl, r3
10002e06:	9b0f      	ldr	r3, [sp, #60]	@ 0x3c
10002e08:	4699      	mov	r9, r3
10002e0a:	003b      	movs	r3, r7
10002e0c:	0037      	movs	r7, r6
10002e0e:	465e      	mov	r6, fp
10002e10:	469b      	mov	fp, r3
10002e12:	0022      	movs	r2, r4
10002e14:	003b      	movs	r3, r7
10002e16:	0031      	movs	r1, r6
10002e18:	47a8      	blx	r5
10002e1a:	4653      	mov	r3, sl
10002e1c:	3401      	adds	r4, #1
10002e1e:	5d18      	ldrb	r0, [r3, r4]
10002e20:	2800      	cmp	r0, #0
10002e22:	d1f6      	bne.n	10002e12 <_vsnprintf+0x606>
10002e24:	464b      	mov	r3, r9
10002e26:	930f      	str	r3, [sp, #60]	@ 0x3c
10002e28:	465b      	mov	r3, fp
10002e2a:	46b3      	mov	fp, r6
10002e2c:	003e      	movs	r6, r7
10002e2e:	001f      	movs	r7, r3
10002e30:	e685      	b.n	10002b3e <_vsnprintf+0x332>
10002e32:	23c0      	movs	r3, #192	@ 0xc0
10002e34:	9a0b      	ldr	r2, [sp, #44]	@ 0x2c
10002e36:	78b8      	ldrb	r0, [r7, #2]
10002e38:	431a      	orrs	r2, r3
10002e3a:	920b      	str	r2, [sp, #44]	@ 0x2c
10002e3c:	1cf9      	adds	r1, r7, #3
10002e3e:	e55c      	b.n	100028fa <_vsnprintf+0xee>
10002e40:	23c0      	movs	r3, #192	@ 0xc0
10002e42:	009b      	lsls	r3, r3, #2
10002e44:	e7f6      	b.n	10002e34 <_vsnprintf+0x628>
10002e46:	230d      	movs	r3, #13
10002e48:	439a      	bics	r2, r3
10002e4a:	0010      	movs	r0, r2
10002e4c:	e77d      	b.n	10002d4a <_vsnprintf+0x53e>
10002e4e:	465b      	mov	r3, fp
10002e50:	0035      	movs	r5, r6
10002e52:	46bb      	mov	fp, r7
10002e54:	464e      	mov	r6, r9
10002e56:	001f      	movs	r7, r3
10002e58:	e671      	b.n	10002b3e <_vsnprintf+0x332>
10002e5a:	4643      	mov	r3, r8
10002e5c:	2b01      	cmp	r3, #1
10002e5e:	d966      	bls.n	10002f2e <_vsnprintf+0x722>
10002e60:	1e63      	subs	r3, r4, #1
10002e62:	4443      	add	r3, r8
10002e64:	0032      	movs	r2, r6
10002e66:	002e      	movs	r6, r5
10002e68:	001d      	movs	r5, r3
10002e6a:	003b      	movs	r3, r7
10002e6c:	46a2      	mov	sl, r4
10002e6e:	465f      	mov	r7, fp
10002e70:	4691      	mov	r9, r2
10002e72:	469b      	mov	fp, r3
10002e74:	0022      	movs	r2, r4
10002e76:	464b      	mov	r3, r9
10002e78:	3401      	adds	r4, #1
10002e7a:	0039      	movs	r1, r7
10002e7c:	2020      	movs	r0, #32
10002e7e:	47b0      	blx	r6
10002e80:	42ac      	cmp	r4, r5
10002e82:	d1f7      	bne.n	10002e74 <_vsnprintf+0x668>
10002e84:	465b      	mov	r3, fp
10002e86:	0035      	movs	r5, r6
10002e88:	46bb      	mov	fp, r7
10002e8a:	464e      	mov	r6, r9
10002e8c:	46a1      	mov	r9, r4
10002e8e:	4654      	mov	r4, sl
10002e90:	001f      	movs	r7, r3
10002e92:	9b0d      	ldr	r3, [sp, #52]	@ 0x34
10002e94:	464a      	mov	r2, r9
10002e96:	7818      	ldrb	r0, [r3, #0]
10002e98:	4659      	mov	r1, fp
10002e9a:	0033      	movs	r3, r6
10002e9c:	4444      	add	r4, r8
10002e9e:	47a8      	blx	r5
10002ea0:	e6ee      	b.n	10002c80 <_vsnprintf+0x474>
10002ea2:	9b0f      	ldr	r3, [sp, #60]	@ 0x3c
10002ea4:	46a1      	mov	r9, r4
10002ea6:	4598      	cmp	r8, r3
10002ea8:	d800      	bhi.n	10002eac <_vsnprintf+0x6a0>
10002eaa:	e64c      	b.n	10002b46 <_vsnprintf+0x33a>
10002eac:	4444      	add	r4, r8
10002eae:	1ae4      	subs	r4, r4, r3
10002eb0:	46b0      	mov	r8, r6
10002eb2:	002e      	movs	r6, r5
10002eb4:	0025      	movs	r5, r4
10002eb6:	464c      	mov	r4, r9
10002eb8:	46b9      	mov	r9, r7
10002eba:	465f      	mov	r7, fp
10002ebc:	0022      	movs	r2, r4
10002ebe:	4643      	mov	r3, r8
10002ec0:	3401      	adds	r4, #1
10002ec2:	0039      	movs	r1, r7
10002ec4:	2020      	movs	r0, #32
10002ec6:	47b0      	blx	r6
10002ec8:	42ac      	cmp	r4, r5
10002eca:	d1f7      	bne.n	10002ebc <_vsnprintf+0x6b0>
10002ecc:	002c      	movs	r4, r5
10002ece:	46bb      	mov	fp, r7
10002ed0:	0035      	movs	r5, r6
10002ed2:	464f      	mov	r7, r9
10002ed4:	4646      	mov	r6, r8
10002ed6:	e636      	b.n	10002b46 <_vsnprintf+0x33a>
10002ed8:	980f      	ldr	r0, [sp, #60]	@ 0x3c
10002eda:	4580      	cmp	r8, r0
10002edc:	d800      	bhi.n	10002ee0 <_vsnprintf+0x6d4>
10002ede:	e273      	b.n	100033c8 <_vsnprintf+0xbbc>
10002ee0:	4643      	mov	r3, r8
10002ee2:	18e2      	adds	r2, r4, r3
10002ee4:	1a13      	subs	r3, r2, r0
10002ee6:	0032      	movs	r2, r6
10002ee8:	002e      	movs	r6, r5
10002eea:	001d      	movs	r5, r3
10002eec:	003b      	movs	r3, r7
10002eee:	4691      	mov	r9, r2
10002ef0:	465f      	mov	r7, fp
10002ef2:	469b      	mov	fp, r3
10002ef4:	910f      	str	r1, [sp, #60]	@ 0x3c
10002ef6:	0022      	movs	r2, r4
10002ef8:	464b      	mov	r3, r9
10002efa:	3401      	adds	r4, #1
10002efc:	0039      	movs	r1, r7
10002efe:	2020      	movs	r0, #32
10002f00:	47b0      	blx	r6
10002f02:	42ac      	cmp	r4, r5
10002f04:	d1f7      	bne.n	10002ef6 <_vsnprintf+0x6ea>
10002f06:	465b      	mov	r3, fp
10002f08:	46bb      	mov	fp, r7
10002f0a:	001f      	movs	r7, r3
10002f0c:	4643      	mov	r3, r8
10002f0e:	990f      	ldr	r1, [sp, #60]	@ 0x3c
10002f10:	3301      	adds	r3, #1
10002f12:	930f      	str	r3, [sp, #60]	@ 0x3c
10002f14:	780b      	ldrb	r3, [r1, #0]
10002f16:	0035      	movs	r5, r6
10002f18:	469c      	mov	ip, r3
10002f1a:	464e      	mov	r6, r9
10002f1c:	4660      	mov	r0, ip
10002f1e:	2800      	cmp	r0, #0
10002f20:	d000      	beq.n	10002f24 <_vsnprintf+0x718>
10002f22:	e5e7      	b.n	10002af4 <_vsnprintf+0x2e8>
10002f24:	e60f      	b.n	10002b46 <_vsnprintf+0x33a>
10002f26:	9b0d      	ldr	r3, [sp, #52]	@ 0x34
10002f28:	781b      	ldrb	r3, [r3, #0]
10002f2a:	9309      	str	r3, [sp, #36]	@ 0x24
10002f2c:	e729      	b.n	10002d82 <_vsnprintf+0x576>
10002f2e:	9b0d      	ldr	r3, [sp, #52]	@ 0x34
10002f30:	0022      	movs	r2, r4
10002f32:	7818      	ldrb	r0, [r3, #0]
10002f34:	4659      	mov	r1, fp
10002f36:	0033      	movs	r3, r6
10002f38:	47a8      	blx	r5
10002f3a:	464c      	mov	r4, r9
10002f3c:	e6a0      	b.n	10002c80 <_vsnprintf+0x474>
10002f3e:	9a0d      	ldr	r2, [sp, #52]	@ 0x34
10002f40:	3bfa      	subs	r3, #250	@ 0xfa
10002f42:	3bff      	subs	r3, #255	@ 0xff
10002f44:	3207      	adds	r2, #7
10002f46:	439a      	bics	r2, r3
10002f48:	3301      	adds	r3, #1
10002f4a:	4699      	mov	r9, r3
10002f4c:	4491      	add	r9, r2
10002f4e:	464b      	mov	r3, r9
10002f50:	930d      	str	r3, [sp, #52]	@ 0x34
10002f52:	6813      	ldr	r3, [r2, #0]
10002f54:	6852      	ldr	r2, [r2, #4]
10002f56:	9215      	str	r2, [sp, #84]	@ 0x54
10002f58:	431a      	orrs	r2, r3
10002f5a:	d106      	bne.n	10002f6a <_vsnprintf+0x75e>
10002f5c:	3210      	adds	r2, #16
10002f5e:	4390      	bics	r0, r2
10002f60:	2200      	movs	r2, #0
10002f62:	9209      	str	r2, [sp, #36]	@ 0x24
10002f64:	2900      	cmp	r1, #0
10002f66:	d000      	beq.n	10002f6a <_vsnprintf+0x75e>
10002f68:	e083      	b.n	10003072 <_vsnprintf+0x866>
10002f6a:	2261      	movs	r2, #97	@ 0x61
10002f6c:	0681      	lsls	r1, r0, #26
10002f6e:	d500      	bpl.n	10002f72 <_vsnprintf+0x766>
10002f70:	2241      	movs	r2, #65	@ 0x41
10002f72:	b2d2      	uxtb	r2, r2
10002f74:	920a      	str	r2, [sp, #40]	@ 0x28
10002f76:	aa14      	add	r2, sp, #80	@ 0x50
10002f78:	4691      	mov	r9, r2
10002f7a:	9a0a      	ldr	r2, [sp, #40]	@ 0x28
10002f7c:	2100      	movs	r1, #0
10002f7e:	3a0a      	subs	r2, #10
10002f80:	920b      	str	r2, [sp, #44]	@ 0x2c
10002f82:	4642      	mov	r2, r8
10002f84:	9217      	str	r2, [sp, #92]	@ 0x5c
10002f86:	4652      	mov	r2, sl
10002f88:	9218      	str	r2, [sp, #96]	@ 0x60
10002f8a:	465a      	mov	r2, fp
10002f8c:	46b2      	mov	sl, r6
10002f8e:	9109      	str	r1, [sp, #36]	@ 0x24
10002f90:	001e      	movs	r6, r3
10002f92:	311f      	adds	r1, #31
10002f94:	9b14      	ldr	r3, [sp, #80]	@ 0x50
10002f96:	4449      	add	r1, r9
10002f98:	46bb      	mov	fp, r7
10002f9a:	9416      	str	r4, [sp, #88]	@ 0x58
10002f9c:	951a      	str	r5, [sp, #104]	@ 0x68
10002f9e:	2400      	movs	r4, #0
10002fa0:	4667      	mov	r7, ip
10002fa2:	4698      	mov	r8, r3
10002fa4:	4689      	mov	r9, r1
10002fa6:	9d15      	ldr	r5, [sp, #84]	@ 0x54
10002fa8:	9019      	str	r0, [sp, #100]	@ 0x64
10002faa:	921b      	str	r2, [sp, #108]	@ 0x6c
10002fac:	e00a      	b.n	10002fc4 <_vsnprintf+0x7b8>
10002fae:	3230      	adds	r2, #48	@ 0x30
10002fb0:	b2d2      	uxtb	r2, r2
10002fb2:	464b      	mov	r3, r9
10002fb4:	3401      	adds	r4, #1
10002fb6:	551a      	strb	r2, [r3, r4]
10002fb8:	45a8      	cmp	r8, r5
10002fba:	d04c      	beq.n	10003056 <_vsnprintf+0x84a>
10002fbc:	2c20      	cmp	r4, #32
10002fbe:	d04c      	beq.n	1000305a <_vsnprintf+0x84e>
10002fc0:	0006      	movs	r6, r0
10002fc2:	000d      	movs	r5, r1
10002fc4:	003a      	movs	r2, r7
10002fc6:	2300      	movs	r3, #0
10002fc8:	0030      	movs	r0, r6
10002fca:	0029      	movs	r1, r5
10002fcc:	f7fe faec 	bl	100015a8 <__wrap___aeabi_uldivmod>
10002fd0:	b2d2      	uxtb	r2, r2
10002fd2:	2a09      	cmp	r2, #9
10002fd4:	d9eb      	bls.n	10002fae <_vsnprintf+0x7a2>
10002fd6:	9b0b      	ldr	r3, [sp, #44]	@ 0x2c
10002fd8:	469c      	mov	ip, r3
10002fda:	4462      	add	r2, ip
10002fdc:	b2d2      	uxtb	r2, r2
10002fde:	e7e8      	b.n	10002fb2 <_vsnprintf+0x7a6>
10002fe0:	10001cc9 	.word	0x10001cc9
10002fe4:	2361      	movs	r3, #97	@ 0x61
10002fe6:	0682      	lsls	r2, r0, #26
10002fe8:	d500      	bpl.n	10002fec <_vsnprintf+0x7e0>
10002fea:	2341      	movs	r3, #65	@ 0x41
10002fec:	b2db      	uxtb	r3, r3
10002fee:	3b0a      	subs	r3, #10
10002ff0:	930b      	str	r3, [sp, #44]	@ 0x2c
10002ff2:	4643      	mov	r3, r8
10002ff4:	a914      	add	r1, sp, #80	@ 0x50
10002ff6:	221f      	movs	r2, #31
10002ff8:	468c      	mov	ip, r1
10002ffa:	9315      	str	r3, [sp, #84]	@ 0x54
10002ffc:	4653      	mov	r3, sl
10002ffe:	4462      	add	r2, ip
10003000:	46b2      	mov	sl, r6
10003002:	940d      	str	r4, [sp, #52]	@ 0x34
10003004:	9717      	str	r7, [sp, #92]	@ 0x5c
10003006:	464c      	mov	r4, r9
10003008:	4680      	mov	r8, r0
1000300a:	46a9      	mov	r9, r5
1000300c:	0017      	movs	r7, r2
1000300e:	9d09      	ldr	r5, [sp, #36]	@ 0x24
10003010:	9e0f      	ldr	r6, [sp, #60]	@ 0x3c
10003012:	9316      	str	r3, [sp, #88]	@ 0x58
10003014:	e008      	b.n	10003028 <_vsnprintf+0x81c>
10003016:	3330      	adds	r3, #48	@ 0x30
10003018:	b2db      	uxtb	r3, r3
1000301a:	3401      	adds	r4, #1
1000301c:	553b      	strb	r3, [r7, r4]
1000301e:	42b5      	cmp	r5, r6
10003020:	d30e      	bcc.n	10003040 <_vsnprintf+0x834>
10003022:	2c20      	cmp	r4, #32
10003024:	d00c      	beq.n	10003040 <_vsnprintf+0x834>
10003026:	0005      	movs	r5, r0
10003028:	0031      	movs	r1, r6
1000302a:	0028      	movs	r0, r5
1000302c:	f7fe fa7e 	bl	1000152c <__wrap___aeabi_uidiv>
10003030:	b2cb      	uxtb	r3, r1
10003032:	2909      	cmp	r1, #9
10003034:	d9ef      	bls.n	10003016 <_vsnprintf+0x80a>
10003036:	9a0b      	ldr	r2, [sp, #44]	@ 0x2c
10003038:	4694      	mov	ip, r2
1000303a:	4463      	add	r3, ip
1000303c:	b2db      	uxtb	r3, r3
1000303e:	e7ec      	b.n	1000301a <_vsnprintf+0x80e>
10003040:	9b15      	ldr	r3, [sp, #84]	@ 0x54
10003042:	4640      	mov	r0, r8
10003044:	4698      	mov	r8, r3
10003046:	9b16      	ldr	r3, [sp, #88]	@ 0x58
10003048:	464d      	mov	r5, r9
1000304a:	4656      	mov	r6, sl
1000304c:	46a1      	mov	r9, r4
1000304e:	469a      	mov	sl, r3
10003050:	9c0d      	ldr	r4, [sp, #52]	@ 0x34
10003052:	9f17      	ldr	r7, [sp, #92]	@ 0x5c
10003054:	e69f      	b.n	10002d96 <_vsnprintf+0x58a>
10003056:	42b7      	cmp	r7, r6
10003058:	d9b0      	bls.n	10002fbc <_vsnprintf+0x7b0>
1000305a:	9b17      	ldr	r3, [sp, #92]	@ 0x5c
1000305c:	4656      	mov	r6, sl
1000305e:	4698      	mov	r8, r3
10003060:	9b18      	ldr	r3, [sp, #96]	@ 0x60
10003062:	465f      	mov	r7, fp
10003064:	469a      	mov	sl, r3
10003066:	9b1b      	ldr	r3, [sp, #108]	@ 0x6c
10003068:	9409      	str	r4, [sp, #36]	@ 0x24
1000306a:	469b      	mov	fp, r3
1000306c:	9c16      	ldr	r4, [sp, #88]	@ 0x58
1000306e:	9819      	ldr	r0, [sp, #100]	@ 0x64
10003070:	9d1a      	ldr	r5, [sp, #104]	@ 0x68
10003072:	4643      	mov	r3, r8
10003074:	9305      	str	r3, [sp, #20]
10003076:	4653      	mov	r3, sl
10003078:	9304      	str	r3, [sp, #16]
1000307a:	9b0f      	ldr	r3, [sp, #60]	@ 0x3c
1000307c:	9006      	str	r0, [sp, #24]
1000307e:	9303      	str	r3, [sp, #12]
10003080:	2300      	movs	r3, #0
10003082:	9302      	str	r3, [sp, #8]
10003084:	9b09      	ldr	r3, [sp, #36]	@ 0x24
10003086:	9301      	str	r3, [sp, #4]
10003088:	ab1c      	add	r3, sp, #112	@ 0x70
1000308a:	0022      	movs	r2, r4
1000308c:	9300      	str	r3, [sp, #0]
1000308e:	4659      	mov	r1, fp
10003090:	0033      	movs	r3, r6
10003092:	0028      	movs	r0, r5
10003094:	f7fe fe70 	bl	10001d78 <_ntoa_format>
10003098:	0004      	movs	r4, r0
1000309a:	f7ff fbdf 	bl	1000285c <_vsnprintf+0x50>
1000309e:	2310      	movs	r3, #16
100030a0:	9a0b      	ldr	r2, [sp, #44]	@ 0x2c
100030a2:	439a      	bics	r2, r3
100030a4:	920f      	str	r2, [sp, #60]	@ 0x3c
100030a6:	2869      	cmp	r0, #105	@ 0x69
100030a8:	d000      	beq.n	100030ac <_vsnprintf+0x8a0>
100030aa:	e191      	b.n	100033d0 <_vsnprintf+0xbc4>
100030ac:	990b      	ldr	r1, [sp, #44]	@ 0x2c
100030ae:	2380      	movs	r3, #128	@ 0x80
100030b0:	000a      	movs	r2, r1
100030b2:	00db      	lsls	r3, r3, #3
100030b4:	401a      	ands	r2, r3
100030b6:	0010      	movs	r0, r2
100030b8:	000a      	movs	r2, r1
100030ba:	4219      	tst	r1, r3
100030bc:	d003      	beq.n	100030c6 <_vsnprintf+0x8ba>
100030be:	2111      	movs	r1, #17
100030c0:	0018      	movs	r0, r3
100030c2:	438a      	bics	r2, r1
100030c4:	920f      	str	r2, [sp, #60]	@ 0x3c
100030c6:	9a0f      	ldr	r2, [sp, #60]	@ 0x3c
100030c8:	2380      	movs	r3, #128	@ 0x80
100030ca:	0011      	movs	r1, r2
100030cc:	009b      	lsls	r3, r3, #2
100030ce:	4019      	ands	r1, r3
100030d0:	468c      	mov	ip, r1
100030d2:	421a      	tst	r2, r3
100030d4:	d15b      	bne.n	1000318e <_vsnprintf+0x982>
100030d6:	2380      	movs	r3, #128	@ 0x80
100030d8:	0011      	movs	r1, r2
100030da:	005b      	lsls	r3, r3, #1
100030dc:	4019      	ands	r1, r3
100030de:	4689      	mov	r9, r1
100030e0:	990d      	ldr	r1, [sp, #52]	@ 0x34
100030e2:	3104      	adds	r1, #4
100030e4:	910b      	str	r1, [sp, #44]	@ 0x2c
100030e6:	421a      	tst	r2, r3
100030e8:	d000      	beq.n	100030ec <_vsnprintf+0x8e0>
100030ea:	e0b2      	b.n	10003252 <_vsnprintf+0xa46>
100030ec:	0013      	movs	r3, r2
100030ee:	065b      	lsls	r3, r3, #25
100030f0:	d400      	bmi.n	100030f4 <_vsnprintf+0x8e8>
100030f2:	e0ed      	b.n	100032d0 <_vsnprintf+0xac4>
100030f4:	9b0d      	ldr	r3, [sp, #52]	@ 0x34
100030f6:	781b      	ldrb	r3, [r3, #0]
100030f8:	001a      	movs	r2, r3
100030fa:	0fd9      	lsrs	r1, r3, #31
100030fc:	910d      	str	r1, [sp, #52]	@ 0x34
100030fe:	2b00      	cmp	r3, #0
10003100:	d100      	bne.n	10003104 <_vsnprintf+0x8f8>
10003102:	e0a3      	b.n	1000324c <_vsnprintf+0xa40>
10003104:	0010      	movs	r0, r2
10003106:	aa14      	add	r2, sp, #80	@ 0x50
10003108:	4694      	mov	ip, r2
1000310a:	4642      	mov	r2, r8
1000310c:	231f      	movs	r3, #31
1000310e:	9215      	str	r2, [sp, #84]	@ 0x54
10003110:	4652      	mov	r2, sl
10003112:	4463      	add	r3, ip
10003114:	46a8      	mov	r8, r5
10003116:	46ba      	mov	sl, r7
10003118:	464d      	mov	r5, r9
1000311a:	9414      	str	r4, [sp, #80]	@ 0x50
1000311c:	46b1      	mov	r9, r6
1000311e:	0004      	movs	r4, r0
10003120:	001f      	movs	r7, r3
10003122:	9216      	str	r2, [sp, #88]	@ 0x58
10003124:	e001      	b.n	1000312a <_vsnprintf+0x91e>
10003126:	2d20      	cmp	r5, #32
10003128:	d00f      	beq.n	1000314a <_vsnprintf+0x93e>
1000312a:	0020      	movs	r0, r4
1000312c:	210a      	movs	r1, #10
1000312e:	f7fe f9fd 	bl	1000152c <__wrap___aeabi_uidiv>
10003132:	3501      	adds	r5, #1
10003134:	197e      	adds	r6, r7, r5
10003136:	3130      	adds	r1, #48	@ 0x30
10003138:	7031      	strb	r1, [r6, #0]
1000313a:	0020      	movs	r0, r4
1000313c:	210a      	movs	r1, #10
1000313e:	f7fe f9f5 	bl	1000152c <__wrap___aeabi_uidiv>
10003142:	0026      	movs	r6, r4
10003144:	0004      	movs	r4, r0
10003146:	2e09      	cmp	r6, #9
10003148:	d8ed      	bhi.n	10003126 <_vsnprintf+0x91a>
1000314a:	9b15      	ldr	r3, [sp, #84]	@ 0x54
1000314c:	464e      	mov	r6, r9
1000314e:	46a9      	mov	r9, r5
10003150:	4645      	mov	r5, r8
10003152:	4698      	mov	r8, r3
10003154:	9b16      	ldr	r3, [sp, #88]	@ 0x58
10003156:	4657      	mov	r7, sl
10003158:	469a      	mov	sl, r3
1000315a:	9c14      	ldr	r4, [sp, #80]	@ 0x50
1000315c:	9b0f      	ldr	r3, [sp, #60]	@ 0x3c
1000315e:	9306      	str	r3, [sp, #24]
10003160:	4643      	mov	r3, r8
10003162:	9305      	str	r3, [sp, #20]
10003164:	4653      	mov	r3, sl
10003166:	9304      	str	r3, [sp, #16]
10003168:	230a      	movs	r3, #10
1000316a:	9303      	str	r3, [sp, #12]
1000316c:	9b0d      	ldr	r3, [sp, #52]	@ 0x34
1000316e:	9302      	str	r3, [sp, #8]
10003170:	464b      	mov	r3, r9
10003172:	9301      	str	r3, [sp, #4]
10003174:	ab1c      	add	r3, sp, #112	@ 0x70
10003176:	0022      	movs	r2, r4
10003178:	9300      	str	r3, [sp, #0]
1000317a:	4659      	mov	r1, fp
1000317c:	0033      	movs	r3, r6
1000317e:	0028      	movs	r0, r5
10003180:	f7fe fdfa 	bl	10001d78 <_ntoa_format>
10003184:	9b0b      	ldr	r3, [sp, #44]	@ 0x2c
10003186:	0004      	movs	r4, r0
10003188:	930d      	str	r3, [sp, #52]	@ 0x34
1000318a:	f7ff fb67 	bl	1000285c <_vsnprintf+0x50>
1000318e:	2207      	movs	r2, #7
10003190:	9b0d      	ldr	r3, [sp, #52]	@ 0x34
10003192:	3307      	adds	r3, #7
10003194:	4393      	bics	r3, r2
10003196:	3201      	adds	r2, #1
10003198:	4694      	mov	ip, r2
1000319a:	449c      	add	ip, r3
1000319c:	4662      	mov	r2, ip
1000319e:	920d      	str	r2, [sp, #52]	@ 0x34
100031a0:	cb0c      	ldmia	r3, {r2, r3}
100031a2:	0fd9      	lsrs	r1, r3, #31
100031a4:	910b      	str	r1, [sp, #44]	@ 0x2c
100031a6:	0011      	movs	r1, r2
100031a8:	4319      	orrs	r1, r3
100031aa:	d100      	bne.n	100031ae <_vsnprintf+0x9a2>
100031ac:	e09b      	b.n	100032e6 <_vsnprintf+0xada>
100031ae:	17d9      	asrs	r1, r3, #31
100031b0:	9113      	str	r1, [sp, #76]	@ 0x4c
100031b2:	9112      	str	r1, [sp, #72]	@ 0x48
100031b4:	4051      	eors	r1, r2
100031b6:	9110      	str	r1, [sp, #64]	@ 0x40
100031b8:	9913      	ldr	r1, [sp, #76]	@ 0x4c
100031ba:	4059      	eors	r1, r3
100031bc:	9111      	str	r1, [sp, #68]	@ 0x44
100031be:	9810      	ldr	r0, [sp, #64]	@ 0x40
100031c0:	9911      	ldr	r1, [sp, #68]	@ 0x44
100031c2:	9a12      	ldr	r2, [sp, #72]	@ 0x48
100031c4:	9b13      	ldr	r3, [sp, #76]	@ 0x4c
100031c6:	1a80      	subs	r0, r0, r2
100031c8:	4199      	sbcs	r1, r3
100031ca:	9010      	str	r0, [sp, #64]	@ 0x40
100031cc:	9111      	str	r1, [sp, #68]	@ 0x44
100031ce:	aa14      	add	r2, sp, #80	@ 0x50
100031d0:	4694      	mov	ip, r2
100031d2:	4642      	mov	r2, r8
100031d4:	2300      	movs	r3, #0
100031d6:	9215      	str	r2, [sp, #84]	@ 0x54
100031d8:	4652      	mov	r2, sl
100031da:	4699      	mov	r9, r3
100031dc:	9216      	str	r2, [sp, #88]	@ 0x58
100031de:	0032      	movs	r2, r6
100031e0:	331f      	adds	r3, #31
100031e2:	4463      	add	r3, ip
100031e4:	46a8      	mov	r8, r5
100031e6:	464e      	mov	r6, r9
100031e8:	46ba      	mov	sl, r7
100031ea:	9414      	str	r4, [sp, #80]	@ 0x50
100031ec:	001f      	movs	r7, r3
100031ee:	9c10      	ldr	r4, [sp, #64]	@ 0x40
100031f0:	9d11      	ldr	r5, [sp, #68]	@ 0x44
100031f2:	4691      	mov	r9, r2
100031f4:	e001      	b.n	100031fa <_vsnprintf+0x9ee>
100031f6:	2e20      	cmp	r6, #32
100031f8:	d010      	beq.n	1000321c <_vsnprintf+0xa10>
100031fa:	0020      	movs	r0, r4
100031fc:	0029      	movs	r1, r5
100031fe:	220a      	movs	r2, #10
10003200:	2300      	movs	r3, #0
10003202:	f7fe f9d1 	bl	100015a8 <__wrap___aeabi_uldivmod>
10003206:	3601      	adds	r6, #1
10003208:	3230      	adds	r2, #48	@ 0x30
1000320a:	002b      	movs	r3, r5
1000320c:	55ba      	strb	r2, [r7, r6]
1000320e:	000d      	movs	r5, r1
10003210:	0022      	movs	r2, r4
10003212:	0004      	movs	r4, r0
10003214:	2b00      	cmp	r3, #0
10003216:	d1ee      	bne.n	100031f6 <_vsnprintf+0x9ea>
10003218:	2a09      	cmp	r2, #9
1000321a:	d8ec      	bhi.n	100031f6 <_vsnprintf+0x9ea>
1000321c:	9b15      	ldr	r3, [sp, #84]	@ 0x54
1000321e:	9410      	str	r4, [sp, #64]	@ 0x40
10003220:	9511      	str	r5, [sp, #68]	@ 0x44
10003222:	4645      	mov	r5, r8
10003224:	4698      	mov	r8, r3
10003226:	464b      	mov	r3, r9
10003228:	9a16      	ldr	r2, [sp, #88]	@ 0x58
1000322a:	46b1      	mov	r9, r6
1000322c:	4657      	mov	r7, sl
1000322e:	001e      	movs	r6, r3
10003230:	4692      	mov	sl, r2
10003232:	9c14      	ldr	r4, [sp, #80]	@ 0x50
10003234:	9b0f      	ldr	r3, [sp, #60]	@ 0x3c
10003236:	9306      	str	r3, [sp, #24]
10003238:	4643      	mov	r3, r8
1000323a:	9305      	str	r3, [sp, #20]
1000323c:	4653      	mov	r3, sl
1000323e:	9304      	str	r3, [sp, #16]
10003240:	230a      	movs	r3, #10
10003242:	9303      	str	r3, [sp, #12]
10003244:	9b0b      	ldr	r3, [sp, #44]	@ 0x2c
10003246:	9302      	str	r3, [sp, #8]
10003248:	464b      	mov	r3, r9
1000324a:	e71c      	b.n	10003086 <_vsnprintf+0x87a>
1000324c:	2800      	cmp	r0, #0
1000324e:	d185      	bne.n	1000315c <_vsnprintf+0x950>
10003250:	e759      	b.n	10003106 <_vsnprintf+0x8fa>
10003252:	9b0d      	ldr	r3, [sp, #52]	@ 0x34
10003254:	681b      	ldr	r3, [r3, #0]
10003256:	0fda      	lsrs	r2, r3, #31
10003258:	0011      	movs	r1, r2
1000325a:	2b00      	cmp	r3, #0
1000325c:	d100      	bne.n	10003260 <_vsnprintf+0xa54>
1000325e:	e0a6      	b.n	100033ae <_vsnprintf+0xba2>
10003260:	17da      	asrs	r2, r3, #31
10003262:	1898      	adds	r0, r3, r2
10003264:	4050      	eors	r0, r2
10003266:	aa14      	add	r2, sp, #80	@ 0x50
10003268:	4691      	mov	r9, r2
1000326a:	231f      	movs	r3, #31
1000326c:	4642      	mov	r2, r8
1000326e:	444b      	add	r3, r9
10003270:	46a8      	mov	r8, r5
10003272:	940d      	str	r4, [sp, #52]	@ 0x34
10003274:	9716      	str	r7, [sp, #88]	@ 0x58
10003276:	0004      	movs	r4, r0
10003278:	4665      	mov	r5, ip
1000327a:	46b1      	mov	r9, r6
1000327c:	001f      	movs	r7, r3
1000327e:	9114      	str	r1, [sp, #80]	@ 0x50
10003280:	9215      	str	r2, [sp, #84]	@ 0x54
10003282:	e001      	b.n	10003288 <_vsnprintf+0xa7c>
10003284:	2d20      	cmp	r5, #32
10003286:	d00f      	beq.n	100032a8 <_vsnprintf+0xa9c>
10003288:	0020      	movs	r0, r4
1000328a:	210a      	movs	r1, #10
1000328c:	f7fe f94e 	bl	1000152c <__wrap___aeabi_uidiv>
10003290:	3501      	adds	r5, #1
10003292:	197e      	adds	r6, r7, r5
10003294:	3130      	adds	r1, #48	@ 0x30
10003296:	7031      	strb	r1, [r6, #0]
10003298:	0020      	movs	r0, r4
1000329a:	210a      	movs	r1, #10
1000329c:	f7fe f946 	bl	1000152c <__wrap___aeabi_uidiv>
100032a0:	0026      	movs	r6, r4
100032a2:	0004      	movs	r4, r0
100032a4:	2e09      	cmp	r6, #9
100032a6:	d8ed      	bhi.n	10003284 <_vsnprintf+0xa78>
100032a8:	9b15      	ldr	r3, [sp, #84]	@ 0x54
100032aa:	46ac      	mov	ip, r5
100032ac:	4645      	mov	r5, r8
100032ae:	4698      	mov	r8, r3
100032b0:	9b14      	ldr	r3, [sp, #80]	@ 0x50
100032b2:	464e      	mov	r6, r9
100032b4:	0019      	movs	r1, r3
100032b6:	9c0d      	ldr	r4, [sp, #52]	@ 0x34
100032b8:	9f16      	ldr	r7, [sp, #88]	@ 0x58
100032ba:	9b0f      	ldr	r3, [sp, #60]	@ 0x3c
100032bc:	9102      	str	r1, [sp, #8]
100032be:	9306      	str	r3, [sp, #24]
100032c0:	4643      	mov	r3, r8
100032c2:	9305      	str	r3, [sp, #20]
100032c4:	4653      	mov	r3, sl
100032c6:	9304      	str	r3, [sp, #16]
100032c8:	230a      	movs	r3, #10
100032ca:	9303      	str	r3, [sp, #12]
100032cc:	4663      	mov	r3, ip
100032ce:	e750      	b.n	10003172 <_vsnprintf+0x966>
100032d0:	0013      	movs	r3, r2
100032d2:	061b      	lsls	r3, r3, #24
100032d4:	d56e      	bpl.n	100033b4 <_vsnprintf+0xba8>
100032d6:	9b0d      	ldr	r3, [sp, #52]	@ 0x34
100032d8:	2200      	movs	r2, #0
100032da:	5e9b      	ldrsh	r3, [r3, r2]
100032dc:	17d9      	asrs	r1, r3, #31
100032de:	185a      	adds	r2, r3, r1
100032e0:	404a      	eors	r2, r1
100032e2:	b292      	uxth	r2, r2
100032e4:	e709      	b.n	100030fa <_vsnprintf+0x8ee>
100032e6:	2300      	movs	r3, #0
100032e8:	4699      	mov	r9, r3
100032ea:	2800      	cmp	r0, #0
100032ec:	d1a2      	bne.n	10003234 <_vsnprintf+0xa28>
100032ee:	2200      	movs	r2, #0
100032f0:	2300      	movs	r3, #0
100032f2:	9210      	str	r2, [sp, #64]	@ 0x40
100032f4:	9311      	str	r3, [sp, #68]	@ 0x44
100032f6:	e76a      	b.n	100031ce <_vsnprintf+0x9c2>
100032f8:	9b0d      	ldr	r3, [sp, #52]	@ 0x34
100032fa:	681b      	ldr	r3, [r3, #0]
100032fc:	4699      	mov	r9, r3
100032fe:	2b00      	cmp	r3, #0
10003300:	d103      	bne.n	1000330a <_vsnprintf+0xafe>
10003302:	3310      	adds	r3, #16
10003304:	4398      	bics	r0, r3
10003306:	2900      	cmp	r1, #0
10003308:	d138      	bne.n	1000337c <_vsnprintf+0xb70>
1000330a:	2361      	movs	r3, #97	@ 0x61
1000330c:	0682      	lsls	r2, r0, #26
1000330e:	d500      	bpl.n	10003312 <_vsnprintf+0xb06>
10003310:	2341      	movs	r3, #65	@ 0x41
10003312:	b2db      	uxtb	r3, r3
10003314:	3b0a      	subs	r3, #10
10003316:	930d      	str	r3, [sp, #52]	@ 0x34
10003318:	4643      	mov	r3, r8
1000331a:	9316      	str	r3, [sp, #88]	@ 0x58
1000331c:	4653      	mov	r3, sl
1000331e:	a914      	add	r1, sp, #80	@ 0x50
10003320:	221f      	movs	r2, #31
10003322:	468c      	mov	ip, r1
10003324:	9317      	str	r3, [sp, #92]	@ 0x5c
10003326:	002b      	movs	r3, r5
10003328:	4462      	add	r2, ip
1000332a:	464d      	mov	r5, r9
1000332c:	46b2      	mov	sl, r6
1000332e:	9415      	str	r4, [sp, #84]	@ 0x54
10003330:	9718      	str	r7, [sp, #96]	@ 0x60
10003332:	4680      	mov	r8, r0
10003334:	0017      	movs	r7, r2
10003336:	4699      	mov	r9, r3
10003338:	9c0b      	ldr	r4, [sp, #44]	@ 0x2c
1000333a:	9e0f      	ldr	r6, [sp, #60]	@ 0x3c
1000333c:	e008      	b.n	10003350 <_vsnprintf+0xb44>
1000333e:	3330      	adds	r3, #48	@ 0x30
10003340:	b2db      	uxtb	r3, r3
10003342:	3401      	adds	r4, #1
10003344:	553b      	strb	r3, [r7, r4]
10003346:	42b5      	cmp	r5, r6
10003348:	d30e      	bcc.n	10003368 <_vsnprintf+0xb5c>
1000334a:	2c20      	cmp	r4, #32
1000334c:	d00c      	beq.n	10003368 <_vsnprintf+0xb5c>
1000334e:	0005      	movs	r5, r0
10003350:	0031      	movs	r1, r6
10003352:	0028      	movs	r0, r5
10003354:	f7fe f8ea 	bl	1000152c <__wrap___aeabi_uidiv>
10003358:	b2cb      	uxtb	r3, r1
1000335a:	2909      	cmp	r1, #9
1000335c:	d9ef      	bls.n	1000333e <_vsnprintf+0xb32>
1000335e:	9a0d      	ldr	r2, [sp, #52]	@ 0x34
10003360:	4694      	mov	ip, r2
10003362:	4463      	add	r3, ip
10003364:	b2db      	uxtb	r3, r3
10003366:	e7ec      	b.n	10003342 <_vsnprintf+0xb36>
10003368:	9b16      	ldr	r3, [sp, #88]	@ 0x58
1000336a:	4640      	mov	r0, r8
1000336c:	4698      	mov	r8, r3
1000336e:	9b17      	ldr	r3, [sp, #92]	@ 0x5c
10003370:	4656      	mov	r6, sl
10003372:	464d      	mov	r5, r9
10003374:	469a      	mov	sl, r3
10003376:	940b      	str	r4, [sp, #44]	@ 0x2c
10003378:	9f18      	ldr	r7, [sp, #96]	@ 0x60
1000337a:	9c15      	ldr	r4, [sp, #84]	@ 0x54
1000337c:	4643      	mov	r3, r8
1000337e:	9305      	str	r3, [sp, #20]
10003380:	4653      	mov	r3, sl
10003382:	9304      	str	r3, [sp, #16]
10003384:	9b0f      	ldr	r3, [sp, #60]	@ 0x3c
10003386:	9006      	str	r0, [sp, #24]
10003388:	9303      	str	r3, [sp, #12]
1000338a:	2300      	movs	r3, #0
1000338c:	9302      	str	r3, [sp, #8]
1000338e:	9b0b      	ldr	r3, [sp, #44]	@ 0x2c
10003390:	e50b      	b.n	10002daa <_vsnprintf+0x59e>
10003392:	990b      	ldr	r1, [sp, #44]	@ 0x2c
10003394:	2380      	movs	r3, #128	@ 0x80
10003396:	000a      	movs	r2, r1
10003398:	00db      	lsls	r3, r3, #3
1000339a:	401a      	ands	r2, r3
1000339c:	0010      	movs	r0, r2
1000339e:	000a      	movs	r2, r1
100033a0:	4219      	tst	r1, r3
100033a2:	d000      	beq.n	100033a6 <_vsnprintf+0xb9a>
100033a4:	e68b      	b.n	100030be <_vsnprintf+0x8b2>
100033a6:	2310      	movs	r3, #16
100033a8:	439a      	bics	r2, r3
100033aa:	920f      	str	r2, [sp, #60]	@ 0x3c
100033ac:	e68b      	b.n	100030c6 <_vsnprintf+0x8ba>
100033ae:	2800      	cmp	r0, #0
100033b0:	d183      	bne.n	100032ba <_vsnprintf+0xaae>
100033b2:	e758      	b.n	10003266 <_vsnprintf+0xa5a>
100033b4:	9b0d      	ldr	r3, [sp, #52]	@ 0x34
100033b6:	681b      	ldr	r3, [r3, #0]
100033b8:	17d9      	asrs	r1, r3, #31
100033ba:	185a      	adds	r2, r3, r1
100033bc:	404a      	eors	r2, r1
100033be:	e69c      	b.n	100030fa <_vsnprintf+0x8ee>
100033c0:	9b0d      	ldr	r3, [sp, #52]	@ 0x34
100033c2:	681b      	ldr	r3, [r3, #0]
100033c4:	9309      	str	r3, [sp, #36]	@ 0x24
100033c6:	e4dc      	b.n	10002d82 <_vsnprintf+0x576>
100033c8:	0003      	movs	r3, r0
100033ca:	3301      	adds	r3, #1
100033cc:	930f      	str	r3, [sp, #60]	@ 0x3c
100033ce:	e5a5      	b.n	10002f1c <_vsnprintf+0x710>
100033d0:	920b      	str	r2, [sp, #44]	@ 0x2c
100033d2:	e46d      	b.n	10002cb0 <_vsnprintf+0x4a4>

100033d4 <vfctprintf>:
100033d4:	b500      	push	{lr}
100033d6:	b085      	sub	sp, #20
100033d8:	9103      	str	r1, [sp, #12]
100033da:	2101      	movs	r1, #1
100033dc:	9002      	str	r0, [sp, #8]
100033de:	9300      	str	r3, [sp, #0]
100033e0:	4803      	ldr	r0, [pc, #12]	@ (100033f0 <vfctprintf+0x1c>)
100033e2:	0013      	movs	r3, r2
100033e4:	424a      	negs	r2, r1
100033e6:	a902      	add	r1, sp, #8
100033e8:	f7ff fa10 	bl	1000280c <_vsnprintf>
100033ec:	b005      	add	sp, #20
100033ee:	bd00      	pop	{pc}
100033f0:	10001fd9 	.word	0x10001fd9

100033f4 <weak_raw_vprintf>:
100033f4:	b510      	push	{r4, lr}
100033f6:	4a09      	ldr	r2, [pc, #36]	@ (1000341c <weak_raw_vprintf+0x28>)
100033f8:	0003      	movs	r3, r0
100033fa:	6814      	ldr	r4, [r2, #0]
100033fc:	b084      	sub	sp, #16
100033fe:	2c00      	cmp	r4, #0
10003400:	d008      	beq.n	10003414 <weak_raw_vprintf+0x20>
10003402:	2201      	movs	r2, #1
10003404:	9100      	str	r1, [sp, #0]
10003406:	4806      	ldr	r0, [pc, #24]	@ (10003420 <weak_raw_vprintf+0x2c>)
10003408:	4252      	negs	r2, r2
1000340a:	a903      	add	r1, sp, #12
1000340c:	47a0      	blx	r4
1000340e:	2001      	movs	r0, #1
10003410:	b004      	add	sp, #16
10003412:	bd10      	pop	{r4, pc}
10003414:	f000 f974 	bl	10003700 <__wrap_puts>
10003418:	2000      	movs	r0, #0
1000341a:	e7f9      	b.n	10003410 <weak_raw_vprintf+0x1c>
1000341c:	2000049c 	.word	0x2000049c
10003420:	10001fc9 	.word	0x10001fc9

10003424 <_exit>:
10003424:	be00      	bkpt	0x0000
10003426:	e7fd      	b.n	10003424 <_exit>

10003428 <exit>:
10003428:	b510      	push	{r4, lr}
1000342a:	f7ff fffb 	bl	10003424 <_exit>
1000342e:	46c0      	nop			@ (mov r8, r8)

10003430 <runtime_init>:
10003430:	b570      	push	{r4, r5, r6, lr}
10003432:	f7fd ff7b 	bl	1000132c <runtime_run_initializers>
10003436:	4d07      	ldr	r5, [pc, #28]	@ (10003454 <runtime_init+0x24>)
10003438:	4e07      	ldr	r6, [pc, #28]	@ (10003458 <runtime_init+0x28>)
1000343a:	42b5      	cmp	r5, r6
1000343c:	d209      	bcs.n	10003452 <runtime_init+0x22>
1000343e:	2400      	movs	r4, #0
10003440:	3e01      	subs	r6, #1
10003442:	1b76      	subs	r6, r6, r5
10003444:	08b6      	lsrs	r6, r6, #2
10003446:	cd08      	ldmia	r5!, {r3}
10003448:	4798      	blx	r3
1000344a:	0023      	movs	r3, r4
1000344c:	3401      	adds	r4, #1
1000344e:	42b3      	cmp	r3, r6
10003450:	d1f9      	bne.n	10003446 <runtime_init+0x16>
10003452:	bd70      	pop	{r4, r5, r6, pc}
10003454:	10003904 	.word	0x10003904
10003458:	10003908 	.word	0x10003908

1000345c <stdio_out_chars_no_crlf>:
1000345c:	0003      	movs	r3, r0
1000345e:	b510      	push	{r4, lr}
10003460:	0008      	movs	r0, r1
10003462:	0011      	movs	r1, r2
10003464:	681b      	ldr	r3, [r3, #0]
10003466:	4798      	blx	r3
10003468:	bd10      	pop	{r4, pc}
1000346a:	46c0      	nop			@ (mov r8, r8)

1000346c <stdio_out_chars_crlf>:
1000346c:	b5f0      	push	{r4, r5, r6, r7, lr}
1000346e:	46c6      	mov	lr, r8
10003470:	b500      	push	{lr}
10003472:	7d43      	ldrb	r3, [r0, #21]
10003474:	0007      	movs	r7, r0
10003476:	000d      	movs	r5, r1
10003478:	0016      	movs	r6, r2
1000347a:	2b00      	cmp	r3, #0
1000347c:	d038      	beq.n	100034f0 <stdio_out_chars_crlf+0x84>
1000347e:	2a00      	cmp	r2, #0
10003480:	dd2e      	ble.n	100034e0 <stdio_out_chars_crlf+0x74>
10003482:	2100      	movs	r1, #0
10003484:	1e6a      	subs	r2, r5, #1
10003486:	4690      	mov	r8, r2
10003488:	5c6a      	ldrb	r2, [r5, r1]
1000348a:	7d03      	ldrb	r3, [r0, #20]
1000348c:	1c4c      	adds	r4, r1, #1
1000348e:	2000      	movs	r0, #0
10003490:	2a0a      	cmp	r2, #10
10003492:	d00c      	beq.n	100034ae <stdio_out_chars_crlf+0x42>
10003494:	42a6      	cmp	r6, r4
10003496:	d016      	beq.n	100034c6 <stdio_out_chars_crlf+0x5a>
10003498:	4643      	mov	r3, r8
1000349a:	5d1b      	ldrb	r3, [r3, r4]
1000349c:	0021      	movs	r1, r4
1000349e:	3b0d      	subs	r3, #13
100034a0:	425a      	negs	r2, r3
100034a2:	4153      	adcs	r3, r2
100034a4:	5c6a      	ldrb	r2, [r5, r1]
100034a6:	b2db      	uxtb	r3, r3
100034a8:	1c4c      	adds	r4, r1, #1
100034aa:	2a0a      	cmp	r2, #10
100034ac:	d1f2      	bne.n	10003494 <stdio_out_chars_crlf+0x28>
100034ae:	2b00      	cmp	r3, #0
100034b0:	d1f0      	bne.n	10003494 <stdio_out_chars_crlf+0x28>
100034b2:	4288      	cmp	r0, r1
100034b4:	db17      	blt.n	100034e6 <stdio_out_chars_crlf+0x7a>
100034b6:	2102      	movs	r1, #2
100034b8:	4810      	ldr	r0, [pc, #64]	@ (100034fc <stdio_out_chars_crlf+0x90>)
100034ba:	683b      	ldr	r3, [r7, #0]
100034bc:	4798      	blx	r3
100034be:	42a6      	cmp	r6, r4
100034c0:	d007      	beq.n	100034d2 <stdio_out_chars_crlf+0x66>
100034c2:	0020      	movs	r0, r4
100034c4:	e7e8      	b.n	10003498 <stdio_out_chars_crlf+0x2c>
100034c6:	4286      	cmp	r6, r0
100034c8:	dd03      	ble.n	100034d2 <stdio_out_chars_crlf+0x66>
100034ca:	1a31      	subs	r1, r6, r0
100034cc:	683b      	ldr	r3, [r7, #0]
100034ce:	1828      	adds	r0, r5, r0
100034d0:	4798      	blx	r3
100034d2:	19ad      	adds	r5, r5, r6
100034d4:	3d01      	subs	r5, #1
100034d6:	782b      	ldrb	r3, [r5, #0]
100034d8:	3b0d      	subs	r3, #13
100034da:	425a      	negs	r2, r3
100034dc:	4153      	adcs	r3, r2
100034de:	753b      	strb	r3, [r7, #20]
100034e0:	bc80      	pop	{r7}
100034e2:	46b8      	mov	r8, r7
100034e4:	bdf0      	pop	{r4, r5, r6, r7, pc}
100034e6:	1a09      	subs	r1, r1, r0
100034e8:	683b      	ldr	r3, [r7, #0]
100034ea:	1828      	adds	r0, r5, r0
100034ec:	4798      	blx	r3
100034ee:	e7e2      	b.n	100034b6 <stdio_out_chars_crlf+0x4a>
100034f0:	6803      	ldr	r3, [r0, #0]
100034f2:	0011      	movs	r1, r2
100034f4:	0028      	movs	r0, r5
100034f6:	4798      	blx	r3
100034f8:	e7f2      	b.n	100034e0 <stdio_out_chars_crlf+0x74>
100034fa:	46c0      	nop			@ (mov r8, r8)
100034fc:	10003c40 	.word	0x10003c40

10003500 <stdio_buffered_printer>:
10003500:	b5f0      	push	{r4, r5, r6, r7, lr}
10003502:	46c6      	mov	lr, r8
10003504:	680b      	ldr	r3, [r1, #0]
10003506:	0006      	movs	r6, r0
10003508:	000c      	movs	r4, r1
1000350a:	b500      	push	{lr}
1000350c:	2b80      	cmp	r3, #128	@ 0x80
1000350e:	d006      	beq.n	1000351e <stdio_buffered_printer+0x1e>
10003510:	1c5a      	adds	r2, r3, #1
10003512:	6022      	str	r2, [r4, #0]
10003514:	18e4      	adds	r4, r4, r3
10003516:	7126      	strb	r6, [r4, #4]
10003518:	bc80      	pop	{r7}
1000351a:	46b8      	mov	r8, r7
1000351c:	bdf0      	pop	{r4, r5, r6, r7, pc}
1000351e:	4b0f      	ldr	r3, [pc, #60]	@ (1000355c <stdio_buffered_printer+0x5c>)
10003520:	681d      	ldr	r5, [r3, #0]
10003522:	2d00      	cmp	r5, #0
10003524:	d016      	beq.n	10003554 <stdio_buffered_printer+0x54>
10003526:	1d0b      	adds	r3, r1, #4
10003528:	4698      	mov	r8, r3
1000352a:	4f0d      	ldr	r7, [pc, #52]	@ (10003560 <stdio_buffered_printer+0x60>)
1000352c:	e002      	b.n	10003534 <stdio_buffered_printer+0x34>
1000352e:	692d      	ldr	r5, [r5, #16]
10003530:	2d00      	cmp	r5, #0
10003532:	d00f      	beq.n	10003554 <stdio_buffered_printer+0x54>
10003534:	682b      	ldr	r3, [r5, #0]
10003536:	2b00      	cmp	r3, #0
10003538:	d0f9      	beq.n	1000352e <stdio_buffered_printer+0x2e>
1000353a:	683b      	ldr	r3, [r7, #0]
1000353c:	2b00      	cmp	r3, #0
1000353e:	d001      	beq.n	10003544 <stdio_buffered_printer+0x44>
10003540:	42ab      	cmp	r3, r5
10003542:	d1f4      	bne.n	1000352e <stdio_buffered_printer+0x2e>
10003544:	0028      	movs	r0, r5
10003546:	4641      	mov	r1, r8
10003548:	6822      	ldr	r2, [r4, #0]
1000354a:	f7ff ff8f 	bl	1000346c <stdio_out_chars_crlf>
1000354e:	692d      	ldr	r5, [r5, #16]
10003550:	2d00      	cmp	r5, #0
10003552:	d1ef      	bne.n	10003534 <stdio_buffered_printer+0x34>
10003554:	2201      	movs	r2, #1
10003556:	2300      	movs	r3, #0
10003558:	e7db      	b.n	10003512 <stdio_buffered_printer+0x12>
1000355a:	46c0      	nop			@ (mov r8, r8)
1000355c:	20000494 	.word	0x20000494
10003560:	20000498 	.word	0x20000498

10003564 <stdio_put_string>:
10003564:	b5f0      	push	{r4, r5, r6, r7, lr}
10003566:	46de      	mov	lr, fp
10003568:	4657      	mov	r7, sl
1000356a:	464e      	mov	r6, r9
1000356c:	4645      	mov	r5, r8
1000356e:	b5e0      	push	{r5, r6, r7, lr}
10003570:	b085      	sub	sp, #20
10003572:	0017      	movs	r7, r2
10003574:	001c      	movs	r4, r3
10003576:	0006      	movs	r6, r0
10003578:	000d      	movs	r5, r1
1000357a:	f7fd fd21 	bl	10000fc0 <time_us_64>
1000357e:	2300      	movs	r3, #0
10003580:	4a31      	ldr	r2, [pc, #196]	@ (10003648 <stdio_put_string+0xe4>)
10003582:	1812      	adds	r2, r2, r0
10003584:	414b      	adcs	r3, r1
10003586:	2180      	movs	r1, #128	@ 0x80
10003588:	0609      	lsls	r1, r1, #24
1000358a:	428b      	cmp	r3, r1
1000358c:	d302      	bcc.n	10003594 <stdio_put_string+0x30>
1000358e:	2201      	movs	r2, #1
10003590:	4b2e      	ldr	r3, [pc, #184]	@ (1000364c <stdio_put_string+0xe8>)
10003592:	4252      	negs	r2, r2
10003594:	492e      	ldr	r1, [pc, #184]	@ (10003650 <stdio_put_string+0xec>)
10003596:	0008      	movs	r0, r1
10003598:	468a      	mov	sl, r1
1000359a:	f000 f98d 	bl	100038b8 <__mutex_try_enter_block_until_veneer>
1000359e:	9001      	str	r0, [sp, #4]
100035a0:	1c6b      	adds	r3, r5, #1
100035a2:	d103      	bne.n	100035ac <stdio_put_string+0x48>
100035a4:	0030      	movs	r0, r6
100035a6:	f000 f93f 	bl	10003828 <strlen>
100035aa:	0005      	movs	r5, r0
100035ac:	2c00      	cmp	r4, #0
100035ae:	d026      	beq.n	100035fe <stdio_put_string+0x9a>
100035b0:	4b28      	ldr	r3, [pc, #160]	@ (10003654 <stdio_put_string+0xf0>)
100035b2:	4698      	mov	r8, r3
100035b4:	4b28      	ldr	r3, [pc, #160]	@ (10003658 <stdio_put_string+0xf4>)
100035b6:	681c      	ldr	r4, [r3, #0]
100035b8:	2c00      	cmp	r4, #0
100035ba:	d015      	beq.n	100035e8 <stdio_put_string+0x84>
100035bc:	2f00      	cmp	r7, #0
100035be:	d121      	bne.n	10003604 <stdio_put_string+0xa0>
100035c0:	4f26      	ldr	r7, [pc, #152]	@ (1000365c <stdio_put_string+0xf8>)
100035c2:	e002      	b.n	100035ca <stdio_put_string+0x66>
100035c4:	6924      	ldr	r4, [r4, #16]
100035c6:	2c00      	cmp	r4, #0
100035c8:	d00e      	beq.n	100035e8 <stdio_put_string+0x84>
100035ca:	6823      	ldr	r3, [r4, #0]
100035cc:	2b00      	cmp	r3, #0
100035ce:	d0f9      	beq.n	100035c4 <stdio_put_string+0x60>
100035d0:	683b      	ldr	r3, [r7, #0]
100035d2:	2b00      	cmp	r3, #0
100035d4:	d001      	beq.n	100035da <stdio_put_string+0x76>
100035d6:	429c      	cmp	r4, r3
100035d8:	d1f4      	bne.n	100035c4 <stdio_put_string+0x60>
100035da:	0020      	movs	r0, r4
100035dc:	002a      	movs	r2, r5
100035de:	0031      	movs	r1, r6
100035e0:	47c0      	blx	r8
100035e2:	6924      	ldr	r4, [r4, #16]
100035e4:	2c00      	cmp	r4, #0
100035e6:	d1f0      	bne.n	100035ca <stdio_put_string+0x66>
100035e8:	9b01      	ldr	r3, [sp, #4]
100035ea:	2b00      	cmp	r3, #0
100035ec:	d128      	bne.n	10003640 <stdio_put_string+0xdc>
100035ee:	0028      	movs	r0, r5
100035f0:	b005      	add	sp, #20
100035f2:	bcf0      	pop	{r4, r5, r6, r7}
100035f4:	46bb      	mov	fp, r7
100035f6:	46b2      	mov	sl, r6
100035f8:	46a9      	mov	r9, r5
100035fa:	46a0      	mov	r8, r4
100035fc:	bdf0      	pop	{r4, r5, r6, r7, pc}
100035fe:	4b18      	ldr	r3, [pc, #96]	@ (10003660 <stdio_put_string+0xfc>)
10003600:	4698      	mov	r8, r3
10003602:	e7d7      	b.n	100035b4 <stdio_put_string+0x50>
10003604:	4b15      	ldr	r3, [pc, #84]	@ (1000365c <stdio_put_string+0xf8>)
10003606:	4699      	mov	r9, r3
10003608:	ab02      	add	r3, sp, #8
1000360a:	1ddf      	adds	r7, r3, #7
1000360c:	230a      	movs	r3, #10
1000360e:	469b      	mov	fp, r3
10003610:	e002      	b.n	10003618 <stdio_put_string+0xb4>
10003612:	6924      	ldr	r4, [r4, #16]
10003614:	2c00      	cmp	r4, #0
10003616:	d0e7      	beq.n	100035e8 <stdio_put_string+0x84>
10003618:	6823      	ldr	r3, [r4, #0]
1000361a:	2b00      	cmp	r3, #0
1000361c:	d0f9      	beq.n	10003612 <stdio_put_string+0xae>
1000361e:	464b      	mov	r3, r9
10003620:	681b      	ldr	r3, [r3, #0]
10003622:	2b00      	cmp	r3, #0
10003624:	d001      	beq.n	1000362a <stdio_put_string+0xc6>
10003626:	42a3      	cmp	r3, r4
10003628:	d1f3      	bne.n	10003612 <stdio_put_string+0xae>
1000362a:	002a      	movs	r2, r5
1000362c:	0031      	movs	r1, r6
1000362e:	0020      	movs	r0, r4
10003630:	47c0      	blx	r8
10003632:	465b      	mov	r3, fp
10003634:	2201      	movs	r2, #1
10003636:	0039      	movs	r1, r7
10003638:	0020      	movs	r0, r4
1000363a:	703b      	strb	r3, [r7, #0]
1000363c:	47c0      	blx	r8
1000363e:	e7e8      	b.n	10003612 <stdio_put_string+0xae>
10003640:	4650      	mov	r0, sl
10003642:	f000 f921 	bl	10003888 <__mutex_exit_veneer>
10003646:	e7d2      	b.n	100035ee <stdio_put_string+0x8a>
10003648:	000f4240 	.word	0x000f4240
1000364c:	7fffffff 	.word	0x7fffffff
10003650:	200001e0 	.word	0x200001e0
10003654:	1000346d 	.word	0x1000346d
10003658:	20000494 	.word	0x20000494
1000365c:	20000498 	.word	0x20000498
10003660:	1000345d 	.word	0x1000345d

10003664 <stdio_init_all>:
10003664:	2000      	movs	r0, #0
10003666:	4770      	bx	lr

10003668 <__wrap_putchar>:
10003668:	b5f0      	push	{r4, r5, r6, r7, lr}
1000366a:	46ce      	mov	lr, r9
1000366c:	4647      	mov	r7, r8
1000366e:	b580      	push	{r7, lr}
10003670:	b083      	sub	sp, #12
10003672:	466b      	mov	r3, sp
10003674:	0006      	movs	r6, r0
10003676:	1ddd      	adds	r5, r3, #7
10003678:	7028      	strb	r0, [r5, #0]
1000367a:	f7fd fca1 	bl	10000fc0 <time_us_64>
1000367e:	2300      	movs	r3, #0
10003680:	4a1a      	ldr	r2, [pc, #104]	@ (100036ec <__wrap_putchar+0x84>)
10003682:	1812      	adds	r2, r2, r0
10003684:	414b      	adcs	r3, r1
10003686:	2180      	movs	r1, #128	@ 0x80
10003688:	0609      	lsls	r1, r1, #24
1000368a:	428b      	cmp	r3, r1
1000368c:	d302      	bcc.n	10003694 <__wrap_putchar+0x2c>
1000368e:	2201      	movs	r2, #1
10003690:	4b17      	ldr	r3, [pc, #92]	@ (100036f0 <__wrap_putchar+0x88>)
10003692:	4252      	negs	r2, r2
10003694:	4917      	ldr	r1, [pc, #92]	@ (100036f4 <__wrap_putchar+0x8c>)
10003696:	0008      	movs	r0, r1
10003698:	4688      	mov	r8, r1
1000369a:	f000 f90d 	bl	100038b8 <__mutex_try_enter_block_until_veneer>
1000369e:	4b16      	ldr	r3, [pc, #88]	@ (100036f8 <__wrap_putchar+0x90>)
100036a0:	4681      	mov	r9, r0
100036a2:	681c      	ldr	r4, [r3, #0]
100036a4:	2c00      	cmp	r4, #0
100036a6:	d014      	beq.n	100036d2 <__wrap_putchar+0x6a>
100036a8:	4f14      	ldr	r7, [pc, #80]	@ (100036fc <__wrap_putchar+0x94>)
100036aa:	e002      	b.n	100036b2 <__wrap_putchar+0x4a>
100036ac:	6924      	ldr	r4, [r4, #16]
100036ae:	2c00      	cmp	r4, #0
100036b0:	d00f      	beq.n	100036d2 <__wrap_putchar+0x6a>
100036b2:	6823      	ldr	r3, [r4, #0]
100036b4:	2b00      	cmp	r3, #0
100036b6:	d0f9      	beq.n	100036ac <__wrap_putchar+0x44>
100036b8:	683b      	ldr	r3, [r7, #0]
100036ba:	2b00      	cmp	r3, #0
100036bc:	d001      	beq.n	100036c2 <__wrap_putchar+0x5a>
100036be:	429c      	cmp	r4, r3
100036c0:	d1f4      	bne.n	100036ac <__wrap_putchar+0x44>
100036c2:	0020      	movs	r0, r4
100036c4:	2201      	movs	r2, #1
100036c6:	0029      	movs	r1, r5
100036c8:	f7ff fed0 	bl	1000346c <stdio_out_chars_crlf>
100036cc:	6924      	ldr	r4, [r4, #16]
100036ce:	2c00      	cmp	r4, #0
100036d0:	d1ef      	bne.n	100036b2 <__wrap_putchar+0x4a>
100036d2:	464b      	mov	r3, r9
100036d4:	2b00      	cmp	r3, #0
100036d6:	d105      	bne.n	100036e4 <__wrap_putchar+0x7c>
100036d8:	0030      	movs	r0, r6
100036da:	b003      	add	sp, #12
100036dc:	bcc0      	pop	{r6, r7}
100036de:	46b9      	mov	r9, r7
100036e0:	46b0      	mov	r8, r6
100036e2:	bdf0      	pop	{r4, r5, r6, r7, pc}
100036e4:	4640      	mov	r0, r8
100036e6:	f000 f8cf 	bl	10003888 <__mutex_exit_veneer>
100036ea:	e7f5      	b.n	100036d8 <__wrap_putchar+0x70>
100036ec:	000f4240 	.word	0x000f4240
100036f0:	7fffffff 	.word	0x7fffffff
100036f4:	200001e0 	.word	0x200001e0
100036f8:	20000494 	.word	0x20000494
100036fc:	20000498 	.word	0x20000498

10003700 <__wrap_puts>:
10003700:	b570      	push	{r4, r5, r6, lr}
10003702:	0004      	movs	r4, r0
10003704:	f000 f890 	bl	10003828 <strlen>
10003708:	2301      	movs	r3, #1
1000370a:	0001      	movs	r1, r0
1000370c:	0005      	movs	r5, r0
1000370e:	2201      	movs	r2, #1
10003710:	0020      	movs	r0, r4
10003712:	f7ff ff27 	bl	10003564 <stdio_put_string>
10003716:	4b08      	ldr	r3, [pc, #32]	@ (10003738 <__wrap_puts+0x38>)
10003718:	681c      	ldr	r4, [r3, #0]
1000371a:	2c00      	cmp	r4, #0
1000371c:	d006      	beq.n	1000372c <__wrap_puts+0x2c>
1000371e:	6863      	ldr	r3, [r4, #4]
10003720:	2b00      	cmp	r3, #0
10003722:	d005      	beq.n	10003730 <__wrap_puts+0x30>
10003724:	4798      	blx	r3
10003726:	6924      	ldr	r4, [r4, #16]
10003728:	2c00      	cmp	r4, #0
1000372a:	d1f8      	bne.n	1000371e <__wrap_puts+0x1e>
1000372c:	0028      	movs	r0, r5
1000372e:	bd70      	pop	{r4, r5, r6, pc}
10003730:	6924      	ldr	r4, [r4, #16]
10003732:	2c00      	cmp	r4, #0
10003734:	d1f3      	bne.n	1000371e <__wrap_puts+0x1e>
10003736:	e7f9      	b.n	1000372c <__wrap_puts+0x2c>
10003738:	20000494 	.word	0x20000494

1000373c <__wrap_vprintf>:
1000373c:	b5f0      	push	{r4, r5, r6, r7, lr}
1000373e:	46ce      	mov	lr, r9
10003740:	4647      	mov	r7, r8
10003742:	b580      	push	{r7, lr}
10003744:	b0a3      	sub	sp, #140	@ 0x8c
10003746:	0004      	movs	r4, r0
10003748:	000d      	movs	r5, r1
1000374a:	f7fd fc39 	bl	10000fc0 <time_us_64>
1000374e:	2300      	movs	r3, #0
10003750:	4a29      	ldr	r2, [pc, #164]	@ (100037f8 <__wrap_vprintf+0xbc>)
10003752:	1812      	adds	r2, r2, r0
10003754:	414b      	adcs	r3, r1
10003756:	2180      	movs	r1, #128	@ 0x80
10003758:	0609      	lsls	r1, r1, #24
1000375a:	428b      	cmp	r3, r1
1000375c:	d302      	bcc.n	10003764 <__wrap_vprintf+0x28>
1000375e:	2201      	movs	r2, #1
10003760:	4b26      	ldr	r3, [pc, #152]	@ (100037fc <__wrap_vprintf+0xc0>)
10003762:	4252      	negs	r2, r2
10003764:	4f26      	ldr	r7, [pc, #152]	@ (10003800 <__wrap_vprintf+0xc4>)
10003766:	0038      	movs	r0, r7
10003768:	f000 f8a6 	bl	100038b8 <__mutex_try_enter_block_until_veneer>
1000376c:	2300      	movs	r3, #0
1000376e:	0006      	movs	r6, r0
10003770:	9301      	str	r3, [sp, #4]
10003772:	0022      	movs	r2, r4
10003774:	002b      	movs	r3, r5
10003776:	4823      	ldr	r0, [pc, #140]	@ (10003804 <__wrap_vprintf+0xc8>)
10003778:	a901      	add	r1, sp, #4
1000377a:	f7ff fe2b 	bl	100033d4 <vfctprintf>
1000377e:	9b01      	ldr	r3, [sp, #4]
10003780:	4680      	mov	r8, r0
10003782:	2b00      	cmp	r3, #0
10003784:	d114      	bne.n	100037b0 <__wrap_vprintf+0x74>
10003786:	4b20      	ldr	r3, [pc, #128]	@ (10003808 <__wrap_vprintf+0xcc>)
10003788:	681c      	ldr	r4, [r3, #0]
1000378a:	2c00      	cmp	r4, #0
1000378c:	d006      	beq.n	1000379c <__wrap_vprintf+0x60>
1000378e:	6863      	ldr	r3, [r4, #4]
10003790:	2b00      	cmp	r3, #0
10003792:	d00b      	beq.n	100037ac <__wrap_vprintf+0x70>
10003794:	4798      	blx	r3
10003796:	6924      	ldr	r4, [r4, #16]
10003798:	2c00      	cmp	r4, #0
1000379a:	d1f8      	bne.n	1000378e <__wrap_vprintf+0x52>
1000379c:	2e00      	cmp	r6, #0
1000379e:	d125      	bne.n	100037ec <__wrap_vprintf+0xb0>
100037a0:	4640      	mov	r0, r8
100037a2:	b023      	add	sp, #140	@ 0x8c
100037a4:	bcc0      	pop	{r6, r7}
100037a6:	46b9      	mov	r9, r7
100037a8:	46b0      	mov	r8, r6
100037aa:	bdf0      	pop	{r4, r5, r6, r7, pc}
100037ac:	6924      	ldr	r4, [r4, #16]
100037ae:	e7ec      	b.n	1000378a <__wrap_vprintf+0x4e>
100037b0:	4b15      	ldr	r3, [pc, #84]	@ (10003808 <__wrap_vprintf+0xcc>)
100037b2:	681d      	ldr	r5, [r3, #0]
100037b4:	4699      	mov	r9, r3
100037b6:	2d00      	cmp	r5, #0
100037b8:	d01c      	beq.n	100037f4 <__wrap_vprintf+0xb8>
100037ba:	4c14      	ldr	r4, [pc, #80]	@ (1000380c <__wrap_vprintf+0xd0>)
100037bc:	e002      	b.n	100037c4 <__wrap_vprintf+0x88>
100037be:	692d      	ldr	r5, [r5, #16]
100037c0:	2d00      	cmp	r5, #0
100037c2:	d00f      	beq.n	100037e4 <__wrap_vprintf+0xa8>
100037c4:	682b      	ldr	r3, [r5, #0]
100037c6:	2b00      	cmp	r3, #0
100037c8:	d0f9      	beq.n	100037be <__wrap_vprintf+0x82>
100037ca:	6823      	ldr	r3, [r4, #0]
100037cc:	2b00      	cmp	r3, #0
100037ce:	d001      	beq.n	100037d4 <__wrap_vprintf+0x98>
100037d0:	42ab      	cmp	r3, r5
100037d2:	d1f4      	bne.n	100037be <__wrap_vprintf+0x82>
100037d4:	0028      	movs	r0, r5
100037d6:	9a01      	ldr	r2, [sp, #4]
100037d8:	a902      	add	r1, sp, #8
100037da:	f7ff fe47 	bl	1000346c <stdio_out_chars_crlf>
100037de:	692d      	ldr	r5, [r5, #16]
100037e0:	2d00      	cmp	r5, #0
100037e2:	d1ef      	bne.n	100037c4 <__wrap_vprintf+0x88>
100037e4:	464b      	mov	r3, r9
100037e6:	9501      	str	r5, [sp, #4]
100037e8:	681c      	ldr	r4, [r3, #0]
100037ea:	e7ce      	b.n	1000378a <__wrap_vprintf+0x4e>
100037ec:	0038      	movs	r0, r7
100037ee:	f000 f84b 	bl	10003888 <__mutex_exit_veneer>
100037f2:	e7d5      	b.n	100037a0 <__wrap_vprintf+0x64>
100037f4:	9501      	str	r5, [sp, #4]
100037f6:	e7d1      	b.n	1000379c <__wrap_vprintf+0x60>
100037f8:	000f4240 	.word	0x000f4240
100037fc:	7fffffff 	.word	0x7fffffff
10003800:	200001e0 	.word	0x200001e0
10003804:	10003501 	.word	0x10003501
10003808:	20000494 	.word	0x20000494
1000380c:	20000498 	.word	0x20000498

10003810 <__wrap_printf>:
10003810:	b40f      	push	{r0, r1, r2, r3}
10003812:	b500      	push	{lr}
10003814:	b083      	sub	sp, #12
10003816:	a904      	add	r1, sp, #16
10003818:	c901      	ldmia	r1!, {r0}
1000381a:	9101      	str	r1, [sp, #4]
1000381c:	f7ff ff8e 	bl	1000373c <__wrap_vprintf>
10003820:	b003      	add	sp, #12
10003822:	bc08      	pop	{r3}
10003824:	b004      	add	sp, #16
10003826:	4718      	bx	r3

10003828 <strlen>:
10003828:	b510      	push	{r4, lr}
1000382a:	0783      	lsls	r3, r0, #30
1000382c:	d00a      	beq.n	10003844 <strlen+0x1c>
1000382e:	0003      	movs	r3, r0
10003830:	2103      	movs	r1, #3
10003832:	e002      	b.n	1000383a <strlen+0x12>
10003834:	3301      	adds	r3, #1
10003836:	420b      	tst	r3, r1
10003838:	d005      	beq.n	10003846 <strlen+0x1e>
1000383a:	781a      	ldrb	r2, [r3, #0]
1000383c:	2a00      	cmp	r2, #0
1000383e:	d1f9      	bne.n	10003834 <strlen+0xc>
10003840:	1a18      	subs	r0, r3, r0
10003842:	bd10      	pop	{r4, pc}
10003844:	0003      	movs	r3, r0
10003846:	6819      	ldr	r1, [r3, #0]
10003848:	4a0c      	ldr	r2, [pc, #48]	@ (1000387c <strlen+0x54>)
1000384a:	4c0d      	ldr	r4, [pc, #52]	@ (10003880 <strlen+0x58>)
1000384c:	188a      	adds	r2, r1, r2
1000384e:	438a      	bics	r2, r1
10003850:	4222      	tst	r2, r4
10003852:	d10f      	bne.n	10003874 <strlen+0x4c>
10003854:	6859      	ldr	r1, [r3, #4]
10003856:	4a09      	ldr	r2, [pc, #36]	@ (1000387c <strlen+0x54>)
10003858:	3304      	adds	r3, #4
1000385a:	188a      	adds	r2, r1, r2
1000385c:	438a      	bics	r2, r1
1000385e:	4222      	tst	r2, r4
10003860:	d108      	bne.n	10003874 <strlen+0x4c>
10003862:	6859      	ldr	r1, [r3, #4]
10003864:	4a05      	ldr	r2, [pc, #20]	@ (1000387c <strlen+0x54>)
10003866:	3304      	adds	r3, #4
10003868:	188a      	adds	r2, r1, r2
1000386a:	438a      	bics	r2, r1
1000386c:	4222      	tst	r2, r4
1000386e:	d0f1      	beq.n	10003854 <strlen+0x2c>
10003870:	e000      	b.n	10003874 <strlen+0x4c>
10003872:	3301      	adds	r3, #1
10003874:	781a      	ldrb	r2, [r3, #0]
10003876:	2a00      	cmp	r2, #0
10003878:	d1fb      	bne.n	10003872 <strlen+0x4a>
1000387a:	e7e1      	b.n	10003840 <strlen+0x18>
1000387c:	fefefeff 	.word	0xfefefeff
10003880:	80808080 	.word	0x80808080

10003884 <_fini>:
10003884:	b5f8      	push	{r3, r4, r5, r6, r7, lr}
10003886:	46c0      	nop			@ (mov r8, r8)

10003888 <__mutex_exit_veneer>:
10003888:	b401      	push	{r0}
1000388a:	4802      	ldr	r0, [pc, #8]	@ (10003894 <__mutex_exit_veneer+0xc>)
1000388c:	4684      	mov	ip, r0
1000388e:	bc01      	pop	{r0}
10003890:	4760      	bx	ip
10003892:	bf00      	nop
10003894:	2000015d 	.word	0x2000015d

10003898 <____aeabi_ldiv0_veneer>:
10003898:	b401      	push	{r0}
1000389a:	4802      	ldr	r0, [pc, #8]	@ (100038a4 <____aeabi_ldiv0_veneer+0xc>)
1000389c:	4684      	mov	ip, r0
1000389e:	bc01      	pop	{r0}
100038a0:	4760      	bx	ip
100038a2:	bf00      	nop
100038a4:	20000185 	.word	0x20000185

100038a8 <____aeabi_idiv0_veneer>:
100038a8:	b401      	push	{r0}
100038aa:	4802      	ldr	r0, [pc, #8]	@ (100038b4 <____aeabi_idiv0_veneer+0xc>)
100038ac:	4684      	mov	ip, r0
100038ae:	bc01      	pop	{r0}
100038b0:	4760      	bx	ip
100038b2:	bf00      	nop
100038b4:	20000185 	.word	0x20000185

100038b8 <__mutex_try_enter_block_until_veneer>:
100038b8:	b401      	push	{r0}
100038ba:	4802      	ldr	r0, [pc, #8]	@ (100038c4 <__mutex_try_enter_block_until_veneer+0xc>)
100038bc:	4684      	mov	ip, r0
100038be:	bc01      	pop	{r0}
100038c0:	4760      	bx	ip
100038c2:	bf00      	nop
100038c4:	200000c1 	.word	0x200000c1

100038c8 <__pre_init_runtime_init_early_resets>:
100038c8:	10001355                                U...

100038cc <__pre_init_runtime_init_usb_power_down>:
100038cc:	10001381 100014cd 10001cad 10001b45     ............E...
100038dc:	10001c51                                Q...

100038e0 <__pre_init_runtime_init_clocks>:
100038e0:	100013f5                                ....

100038e4 <__pre_init_runtime_init_post_clock_resets>:
100038e4:	1000139d                                ....

100038e8 <__pre_init_runtime_init_rp2040_gpio_ie_disable>:
100038e8:	100013bd                                ....

100038ec <__pre_init_runtime_init_spin_locks_reset>:
100038ec:	100013d1                                ....

100038f0 <__pre_init_runtime_init_mutex>:
100038f0:	10000809                                ....

100038f4 <__pre_init_runtime_init_install_ram_vector_table>:
100038f4:	100013d9                                ....

100038f8 <__pre_init_runtime_init_default_alarm_pool>:
100038f8:	10000b85                                ....

100038fc <__pre_init_first_per_core_initializer>:
100038fc:	1000131d                                ....

10003900 <__pre_init_runtime_init_per_core_irq_priorities>:
10003900:	1000075d                                ]...

10003904 <__frame_dummy_init_array_entry>:
10003904:	100002b1                                ....

Disassembly of section .data:

200000c0 <mutex_try_enter_block_until>:
200000c0:	b5f0      	push	{r4, r5, r6, r7, lr}
200000c2:	46c6      	mov	lr, r8
200000c4:	0015      	movs	r5, r2
200000c6:	b500      	push	{lr}
200000c8:	0004      	movs	r4, r0
200000ca:	001e      	movs	r6, r3
200000cc:	6802      	ldr	r2, [r0, #0]
200000ce:	f3ef 8110 	mrs	r1, PRIMASK
200000d2:	b672      	cpsid	i
200000d4:	6813      	ldr	r3, [r2, #0]
200000d6:	2b00      	cmp	r3, #0
200000d8:	d0fc      	beq.n	200000d4 <mutex_try_enter_block_until+0x14>
200000da:	f3bf 8f5f 	dmb	sy
200000de:	2304      	movs	r3, #4
200000e0:	56e3      	ldrsb	r3, [r4, r3]
200000e2:	2b00      	cmp	r3, #0
200000e4:	db2d      	blt.n	20000142 <mutex_try_enter_block_until+0x82>
200000e6:	6822      	ldr	r2, [r4, #0]
200000e8:	f3bf 8f5f 	dmb	sy
200000ec:	2000      	movs	r0, #0
200000ee:	6010      	str	r0, [r2, #0]
200000f0:	f381 8810 	msr	PRIMASK, r1
200000f4:	22d0      	movs	r2, #208	@ 0xd0
200000f6:	0612      	lsls	r2, r2, #24
200000f8:	7812      	ldrb	r2, [r2, #0]
200000fa:	b252      	sxtb	r2, r2
200000fc:	4690      	mov	r8, r2
200000fe:	429a      	cmp	r2, r3
20000100:	d103      	bne.n	2000010a <mutex_try_enter_block_until+0x4a>
20000102:	2000      	movs	r0, #0
20000104:	bc80      	pop	{r7}
20000106:	46b8      	mov	r8, r7
20000108:	bdf0      	pop	{r4, r5, r6, r7, pc}
2000010a:	2700      	movs	r7, #0
2000010c:	e00b      	b.n	20000126 <mutex_try_enter_block_until+0x66>
2000010e:	6823      	ldr	r3, [r4, #0]
20000110:	f3bf 8f5f 	dmb	sy
20000114:	601f      	str	r7, [r3, #0]
20000116:	f381 8810 	msr	PRIMASK, r1
2000011a:	0028      	movs	r0, r5
2000011c:	0031      	movs	r1, r6
2000011e:	f000 f833 	bl	20000188 <__best_effort_wfe_or_timeout_veneer>
20000122:	2800      	cmp	r0, #0
20000124:	d1ed      	bne.n	20000102 <mutex_try_enter_block_until+0x42>
20000126:	6822      	ldr	r2, [r4, #0]
20000128:	f3ef 8110 	mrs	r1, PRIMASK
2000012c:	b672      	cpsid	i
2000012e:	6813      	ldr	r3, [r2, #0]
20000130:	2b00      	cmp	r3, #0
20000132:	d0fc      	beq.n	2000012e <mutex_try_enter_block_until+0x6e>
20000134:	f3bf 8f5f 	dmb	sy
20000138:	7923      	ldrb	r3, [r4, #4]
2000013a:	2b7f      	cmp	r3, #127	@ 0x7f
2000013c:	d9e7      	bls.n	2000010e <mutex_try_enter_block_until+0x4e>
2000013e:	4643      	mov	r3, r8
20000140:	e002      	b.n	20000148 <mutex_try_enter_block_until+0x88>
20000142:	23d0      	movs	r3, #208	@ 0xd0
20000144:	061b      	lsls	r3, r3, #24
20000146:	681b      	ldr	r3, [r3, #0]
20000148:	7123      	strb	r3, [r4, #4]
2000014a:	6823      	ldr	r3, [r4, #0]
2000014c:	f3bf 8f5f 	dmb	sy
20000150:	2200      	movs	r2, #0
20000152:	601a      	str	r2, [r3, #0]
20000154:	f381 8810 	msr	PRIMASK, r1
20000158:	2001      	movs	r0, #1
2000015a:	e7d3      	b.n	20000104 <mutex_try_enter_block_until+0x44>

2000015c <mutex_exit>:
2000015c:	6802      	ldr	r2, [r0, #0]
2000015e:	f3ef 8110 	mrs	r1, PRIMASK
20000162:	b672      	cpsid	i
20000164:	6813      	ldr	r3, [r2, #0]
20000166:	2b00      	cmp	r3, #0
20000168:	d0fc      	beq.n	20000164 <mutex_exit+0x8>
2000016a:	f3bf 8f5f 	dmb	sy
2000016e:	23ff      	movs	r3, #255	@ 0xff
20000170:	7103      	strb	r3, [r0, #4]
20000172:	6803      	ldr	r3, [r0, #0]
20000174:	f3bf 8f5f 	dmb	sy
20000178:	2200      	movs	r2, #0
2000017a:	601a      	str	r2, [r3, #0]
2000017c:	f381 8810 	msr	PRIMASK, r1
20000180:	bf40      	sev
20000182:	4770      	bx	lr

20000184 <__aeabi_idiv0>:
20000184:	4770      	bx	lr
20000186:	46c0      	nop			@ (mov r8, r8)

20000188 <__best_effort_wfe_or_timeout_veneer>:
20000188:	b401      	push	{r0}
2000018a:	4802      	ldr	r0, [pc, #8]	@ (20000194 <__best_effort_wfe_or_timeout_veneer+0xc>)
2000018c:	4684      	mov	ip, r0
2000018e:	bc01      	pop	{r0}
20000190:	4760      	bx	ip
20000192:	bf00      	nop
20000194:	10000ebd 	.word	0x10000ebd

20000198 <striped_spin_lock_num>:
20000198:	00000010                                ....

2000019c <default_alarm_pool>:
	...
200001b0:	200001e8 00000000 00000000 00000000     ... ............

200001c0 <aeabi_bits_funcs>:
200001c0:	00003350 	.word	0x00003350
200001c4:	0000334c 	.word	0x0000334c
200001c8:	00003354 	.word	0x00003354
200001cc:	00003352 	.word	0x00003352

200001d0 <aeabi_bits_funcs_end>:
200001d0:	0000534d 	.word	0x0000534d
200001d4:	0000434d 	.word	0x0000434d
200001d8:	00003453 	.word	0x00003453
200001dc:	00003443 	.word	0x00003443

200001e0 <print_mutex>:
	...
